(lp0
V5mK9PgE/7WsVt32rhWGABA
p1
aVnAjOmeqgNEMrct9Bpo5m6A
p2
aVL2QVyjuGT8TGaiGrMWszIg
p3
aVtt1ln7QEJ9rD1jjGwJkyew
p4
aVaLPM6N7Tik7wn3CucCJtog
p5
aVxrpd17qMdz+2n+FS/mdZPg
p6
aViRvg70ZGUEUM3TWava2e9Q
p7
aVi/pF+lmseoORBV3d6YKcqw
p8
aVw937s4RY67C8bCC7pMKWJg
p9
aV2le/LvSIpHoRYmgMwNaF0Q
p10
aVT22tA/RC99D4R7PkkbNTUA
p11
aV9dkeeRgTRnGAdf6yM0IGtA
p12
aVntybdk15dz34OSPy2D0X/A
p13
aV8ErPMBXffJM/Y8VUZ2Q3jg
p14
aVKLlJEYbTFCVjaXr5sAtg1A
p15
aVwqhxR6BFzCVqBqKseKARFw
p16
aV/Zc/1cgBYF5ZIUCDL1xfOA
p17
aV5ygMiQ6fsNGovokSzR6T1g
p18
aVWjnot5qHMrkyohoav3BOog
p19
aVw1IhCZqt5orcxFdz5OdjfQ
p20
aV/DC/tgDsLdcwLlIUBb8XmA
p21
aV8ckejWUxEuUxqj4wRkeqwA
p22
aV0NnpEqhwVsL5Vj0+W9Wg6g
p23
aVQXr0IObpyqY0YyOjAkXRhw
p24
aV+jLWPvEBYqE1KXb/9yjimA
p25
aVWsPMT+fn2YouYuockZVLqw
p26
aVmi0t/qF8Y7mwdIJk7M6Lvg
p27
aVKrK49Qk2dS/O1/wWMjnybA
p28
aVUEZDtEHSlbIOh+oYq1dZcQ
p29
aVFf+PUZq3XVAQGtsYQP6Hog
p30
aV85egfJ1NecagW8AuJ4hDrw
p31
aVJt2NLQSv5gW/r/9T3PNsRQ
p32
aVsfF0Bp9Sxhs12++7CmOXug
p33
aVO41vfMVxlwKxWIsstTxPPg
p34
aVgFLnBjHi1v3CwrkYl65uhw
p35
aV9H0O1jMPyY/ey/hTute7Rg
p36
aVRvos7NK8GCLECvED/BE4kA
p37
aVVFdlwjARxKFjC12qzGYETA
p38
aVfwAvS/Dwqz/aNhXDHmY15A
p39
aVv5r0pAobFTmGmX+ESaHqrw
p40
aVXT7GH7ixtMGQSy3ckkJ8BQ
p41
aVXQJEFnux3m3Fv1yCiz2Xkw
p42
aVDV6iqidMId17kSPmSSr5IQ
p43
aVTTxezff4OQM0u8BpbUGJNg
p44
aV5P5h+X2yJcIesBNZ0uc78g
p45
aVOvzrw7qmA9VKmsApKigXjw
p46
aVMdwMZUCvlZgX03VR6E/kSw
p47
aVKQ9+yXVV8AshUrHPAkSgrQ
p48
aVy/MiNf2pGYC9MMVf+v3d9w
p49
aV/MvPw3DsP557JMOLKwxiaw
p50
aV2RF9yodZhtVmmFCLSUL9Kg
p51
aVPGtbAze0D5SNAbf3ql2Qew
p52
aV9CCARAfp8VDjXsM9xOtqyA
p53
aVBrfBbWEsTC4E6lZNZdC/8A
p54
aVnyTXIur4wPNc17koqfnc7g
p55
aVOvwiCKVYlY3AUkjyn5IzbA
p56
aVs5AiaG7ppDNETqltj1x37A
p57
aVgJCr5FPjTzJfExZ+z9151w
p58
aV3x4OdxiA9qGQchGw5IEzUQ
p59
aV6rglYdEzXSW+FL1ksioPBQ
p60
aVeYTCN7wEbKnMw3hBTrcHSA
p61
aVyh7C6usCtp+bc+cXdJCHRg
p62
aVbqLM6KOv/FobazBOfSEG0A
p63
aVkdQtkVQUEkCA/lM1mbZooQ
p64
aVk4D1ZQ6vAy78UvPqXPCkiw
p65
aV4KndJpHHBQaFKdGXTeCuDQ
p66
aVuadJprRMpt63kV2k+jiS4A
p67
aVGowQkoCux2V0h0osstPr7g
p68
aVDtYWtkGjYhfFf3oljxZ9jw
p69
aVFD1tkil/2kNNve7z+cxhmg
p70
aVK9OPRgsKDKyp7n6O7u++/A
p71
aV2zcY9Y/Le4oye7J8SC2png
p72
aVW883/Sr9rDMw+jSVeDZHtw
p73
aVr8oygZiYlb+mR2jxlr/1hQ
p74
aV0k7z2JnY2uB602vs9kMRgQ
p75
aVW+szLNMjP7yNVo+8P1dE5Q
p76
aVLIz9aYfqdLPdueYNCmWZbA
p77
aVvegrtAAlLWP90Q2mjUEaVA
p78
aVJfXJzD0JPqNFEHCLm3dTOA
p79
aVgxztVvz8QgeSaABFE8/xYQ
p80
aVBNp5ITcYOI6sO3y0c5/g6Q
p81
aVLX36gMtGe7KfFuCZtgx8wA
p82
aVrjbahc4m7fZVsyAqlDqKbg
p83
aVJ4qLp7IIU78FrdB+29kNOw
p84
aVfSjIcS0EqffZOXIqZ6pyJg
p85
aViUolEgs7fn97FCD93ocV/A
p86
aV7efturUhg6dFd8jbJNxfPw
p87
aVm+aqOPSsJbi4mc5fQn0xDA
p88
aVF3OQMqZPiGQfAxJLSdSGYg
p89
aVw2+1VcLPuEHRxU+P4s17vw
p90
aV4QICpZ6v7I+i8nJKeSSE8Q
p91
aVISNwh8sIJW51FIIRPMQhHQ
p92
aVsVlhy/wJJ+R9fM0EbLZw6A
p93
aVnUpGo5RZvK6xgFu2a8O+RA
p94
aVfc6GHdmFT6q1qJY9Oo7Eyw
p95
aVa1WRXLwv636PFv+yM09m+g
p96
aVzUiIuSnrQzalwNi1m+OVtg
p97
aVJBuiCWft9rzvTcyP96yPgQ
p98
aV216smWhCoc+ncJzcENj0WQ
p99
aV+JAVQG8g5zZt6tRfplCegw
p100
aVKmt6ngUjIEqRC96MkdvxbA
p101
aV358a5CHNa7xhQIBgj9O3Cg
p102
aVYFDQoSgtdfcKt/ctGG0c0g
p103
aVDkIcM7mIm/DVjfZfhK89UQ
p104
aVnafwXhPhEitq+B/ae/76aw
p105
aVdhI6iRD2FDLlT7CKopxLyA
p106
aVGbTjAE5fUPi8py8gv/CDwQ
p107
aVk5aPB5uFdSGCuhBrU1ccNQ
p108
aVu8i2JpCs33SbzhLTsaMkGg
p109
aVhwUOs0t1Z61Wld4Vl8xKEw
p110
aVSjvKpIimN6AZo9HQZaRfgQ
p111
aVwSOjkX3QofjjbRO5+hLaSQ
p112
aV81jkWP7RGsqeYt4ROJdsoQ
p113
aVQiI586z8mYoLi0+BhkQJog
p114
aVuH8SkzNYqs5Wn/Cuf5Pf1A
p115
aVoLgB35u8VKTwfpeLEkswFg
p116
aVn6aFsjlvdQC7kiqcD/xMTw
p117
aV2GsoVa1U+lK7QSPCmaazBw
p118
aVy6K0La6SwfBA0le0qwIPMg
p119
aVpOUoYgpbjPpTVUa0VXQ50w
p120
aViJkHX+mHNBeoNiJGQf2UJA
p121
aVRFyE3BJv8lAdjOMaMV//gQ
p122
aV37f32mo3xCJf/+ULWjsYsw
p123
aVPhU8n1dIlxaT+qOiekOTbA
p124
aV9zJy6flhyY20vUzQsoAvqw
p125
aV5a4MlE8JybUULdgz4FvVjA
p126
aVZ4Ibte53GwLS3FIZ+5M15Q
p127
aVpelqXTtdRYBzPDoadfX6HQ
p128
aVAXVQ1LaGLqIXEZs5QXuSJQ
p129
aVuH8j5KPHb0KarEuGwwYhng
p130
aV2eXzF2qHeU3i16rp4fUhjg
p131
aV6HszwhCM3NdjslFq0876LQ
p132
aVt71RDlj3yUTCzi+zYrlhcQ
p133
aVZX/FNTc7GJ4kGJA+Ab6jZw
p134
aVHHNXAAuemZwz8tRXJvTF1Q
p135
aVI+Kr6kNvwrwDYiiKC475ig
p136
aVtDB4jg32N82/LJZ8TNq3TQ
p137
aVoe3TtwolPiQl+zJo9o/V8w
p138
aVu3KmNH3b0XcCNPw95cauHQ
p139
aV8Ar5M9WNOBtrg9dQh99tEw
p140
aVI+WyuOT5Om6vSGp8lPL3SA
p141
aV99iksuXQBdiNz+ZupjwqHQ
p142
aVoifA5AX4c4HrQ3BcUclfyQ
p143
aVbTdZgjezGUWr0efKKg5ueg
p144
aVImGJB2dbhKlUmTGgfcw/+w
p145
aV5ITzP11JVd4rVAN9CpUVXw
p146
aV20X+2Ft5OsMQFhzLrV1QPw
p147
aVVTWH/TaRtwELn1+t687ZTA
p148
aVcImR1eAC8m5PKbmUj1O/Sg
p149
aVaQY9O8E2jvMADWpEYWUdBw
p150
aV3Cvc3FMhABIqnkLMNNvFaw
p151
aVP7Y3/Gom39P9RxB2N4uagQ
p152
aVBbugjV53OLXlNTdzAM1d2Q
p153
aVn6uB0FjIL4vWu7hZ9Yjoaw
p154
aVB3A74H/j6kmatKCXBEamBQ
p155
aVzrXSHC+fVKhcjnzJFB7gNQ
p156
aVpUlWeYY1tKVhZjzYczEDGg
p157
aVBcAlIMElJV6Mlj0W9WTY3A
p158
aVUMnJz5vYlVXt/sd66REAVQ
p159
aVxazkCVVGS7KngvEkbnvMGQ
p160
aVo+GHj/L1itwafaVW3Jr6IQ
p161
aV+l0u0oM8zv0o9sdVDT1Tmg
p162
aV9PWZx/CBjjXK02S1Aq/ZXw
p163
aVuvNHVV2G7C32OD95zX15sQ
p164
aVDO/9jvKtYE7VMNn6Pcds8g
p165
aVhR1LwAY+ofv99cAxUtcZmA
p166
aVwTigZVoYawi2lV80dbu2ZQ
p167
aVuy9T2d8f1+UteAVBPWwxjg
p168
aVBhOtS3e6pLEhMEfTOk5fbQ
p169
aVeW+BJlh8nYjTJylbnB6A5A
p170
aVirIw8S/UF6SeH5UUp7xiGg
p171
aVjIwNUqJ0r+JuDCVoRXKhBQ
p172
aVpm5pPVFj8I6xMQS47CVbeg
p173
aVHSH32QyffuDOGtxR/n4K6A
p174
aVluDP5MBrM6B0DDrx8YOHtg
p175
aV6vjKlnJQesgApMw6YgmzrA
p176
aVT5vaM1QKPC8iW+rNWWEUyw
p177
aV7rhFQa9NxAlshjBGDbykxQ
p178
aVvb/LbFIGhpbWVFKp9RDvFA
p179
aVT6XjJCRpC2W4iZHGO662KQ
p180
aV0YeSyDhz36o5+Q5To1uWkg
p181
aVudVnjpeUsRd+IdrbBbTHSA
p182
aVP/MroR8tZRfKDMresEBkRQ
p183
aVyftESeLGrrhPTapddfUvCQ
p184
aV9FJ75kThEkkAI6UyUTMddA
p185
aVXF45lneIT3SVHsaID0qevw
p186
aVloa62DwBdt6aLvLsErjB5Q
p187
aVlzEV9J5iQuRKGi15TGf+Ww
p188
aVJPzZuFsJTZGQVxmXuMwLbg
p189
aVx8BcPaeM0nNAjBjBDUiitg
p190
aVXfDfHi2rwyNp8QtNjCYYDg
p191
aVQVhKBZUMEXhduzxO0IW6lA
p192
aVxN9/dfEogCrZebHBVaq4gQ
p193
aVFoSTreDDdwEvydFfKoYFMA
p194
aVcj8PFnDXSLQOM6J5y46H0g
p195
aVu2EaG5p5CTEEJeLJ/cVTaA
p196
aVmmO3S6T8eQxy7+ZI3WwElA
p197
aVn8ZxQQx3MLHGn9qrXxHucg
p198
aVw11vEIoEEIWdB39bmpsikQ
p199
aVTiEvrpRL6muuJN817Lr2FA
p200
aVUejvRmB6xo1w1EVCg9enMg
p201
aVKVsg79s5j9WFFwNumdNJdQ
p202
aVYSHxGU0SJJArHMcfAioprg
p203
aV2rmHbthZ159g3a9Y4AK2hg
p204
aVvwkptYKbXiYAz1xWJfZ01A
p205
aVy0OibBu/YZXgxH5eI6oTLA
p206
aVb4m3Z59ioU1Mw2oIQ4sdEA
p207
aVdK7Z4KKW+XBZO6o4e7/OZg
p208
aVNmRf76LzitH2ZAeoI/Mfdw
p209
aVQiVJkGMT2a3Itg3tPXjfgw
p210
aVv3mU3WEPPnB4RxmQlbu3yg
p211
aVpPKrjIVL132hmwSe0iYvbw
p212
aV3d3VrwnywfB5RVjfgZ7jSA
p213
aVelBoRj/X7Fq/I0p1woWEsw
p214
aVQ7T5NvqT/20nAX/utM8WNA
p215
aVCDetvT4g6S8jOSWgtzSf7g
p216
aV+ZvP0HAprMlNCPW8aCEZHA
p217
aVO6YfxHpVv+RgcmCKxYC3ng
p218
aVGUhQaYyaQH5qjC29VZ410A
p219
aVcFXTnImpD3UyzcyQdy6IVQ
p220
aVJYURgqW0oas3cz3PB2kFTA
p221
aVSoxwXpft6inRbmLm6W3kIA
p222
aVRzG+cTY9+ikTfS5MKsHOuQ
p223
aVYYIvLN1Cazh3JYtAipl2lg
p224
aV2x7RriIgl8CUBTUQ7jrvjw
p225
aVKV6ayN/9pI4yJOH7PEGLNw
p226
aVWsfC2IgL6XFXWDoh3p5MgA
p227
aVaTSQkr+MSucMAQ8tL9UBVw
p228
aV+Zpwm8BtLKZ14synU3hiYA
p229
aVCitJ5KMx3dcvqo3A6KOwfg
p230
aV3gxg9RUc/9P8GlM18TQmAw
p231
aV4L6WjoeGDb0I0BJp1ryf6Q
p232
aV9tEZRm6oI+e1Tz0x72b0vQ
p233
aVbxzVxotPt/hlM5EQPXp/ug
p234
aVmjDBI7abpAnC8ewoWh8SkQ
p235
aVTc69lc8lChNrgXnKvsPOwA
p236
aVTjKNtFTCokL1Nllu3ShRhg
p237
aVxKfS59bZwQToJhbeOtseqA
p238
aVApXtXtSbiQGBH7K011hOBw
p239
aVimLtn/9RRisp29uN9gUA1A
p240
aVxru73CqCpP3Xg4TG3mvxZw
p241
aVbySBS7Dt1Y3lPGqPaSBIvQ
p242
aVIm0yGqgfHOujadk8h5jYTg
p243
aVHxlZc3TC8F5lYrYhVXSIcQ
p244
aVJCyjU3WKeEhrbdQoeFRFAA
p245
aVB7cFlc33PHcbwErXPVINWA
p246
aVBSCfh9zf8DbO6LGf4ncKDw
p247
aVavKh/HfhNztS/H7cyhzn4Q
p248
aVOAGYr64FT7hajWrTvT3hmw
p249
aVBBr8DPN9RBUKSQCiEiQhwQ
p250
aVVoHgbSlionR5FxSa1YPmQQ
p251
aVzYsuo7merCzp1YqVmgZMog
p252
aVrzKhdeTs2L9Zl//iO0SX4w
p253
aV5rN7qg3DTHwS0sqLfSiVXw
p254
aVyoA7R6EuhII1cxuY0GfAlw
p255
aVHYVxAgX/Rlkafy9BcttoOQ
p256
aV/7+HXRpcs4H0Smd4gk9tlA
p257
aVtOotxEwiWEUsudSWs6Vomg
p258
aVOEIeGKYZ++nZkDZmLYnL9w
p259
aV5Dy0klaa52aKd0CgMu8frw
p260
aV7tlDoskaUebI6V9DYGmNTg
p261
aVC1tqJ4iNcPt/ZnqRYR/dqg
p262
aVhMtrlIK2qeh4cp43VXv/ig
p263
aVqKIuB2SfGQZTHNQotHQLwA
p264
aVy5ULrV9TshE3+NqaMipiPw
p265
aVhqJw/eO3waf3y9IhYZp0Xw
p266
aVZA3k+4+qMHexwXqV+dqTIA
p267
aViHm9YcGScy0hmMb4YVJlrw
p268
aVHl08JiyvtdrKsaxhe1lmLw
p269
aVO0rANPMbRc3meEno80twbQ
p270
aVn/4cghnUnfWfYrwuGX+JKA
p271
aVA6p/DTi9gOBihK5ju4k69A
p272
aVfJIR5LD5w+YWyoP60IZt3Q
p273
aV8mlSJGmoVei0tmLhTLY4Mg
p274
aVaOWQcpT/Hpq+54Ld883Cgg
p275
aVQdw36WLpWlbEYUvE/CPTmw
p276
aV3jNNNhTTDDLbp1ey+yVkJA
p277
aVEE2IWraZ/aPa5pxGvg33hA
p278
aVbIt2cXjxlvHRLnryypruSw
p279
aVSgJ463/ClvJSsWavvTx+Lw
p280
aVT8R2SDB5fQ502S6/cbdsqA
p281
aVgUWmyQraQChGUT336/MzFA
p282
aVAXZSksd8/8qjQdJMcCFf5w
p283
aVasKjPOlDDBQ8XRicUPqFbA
p284
aVMClWWZIhynNvVL4VhfyykQ
p285
aV1xb15fEdIMNIsSgGqbcI6g
p286
aVI1zyN9tlCWMoeMxg8AS9gQ
p287
aVUG11eXCwzE8iO5ojQjmJag
p288
aVbovMz2cCtHB+yq6wMdUtXA
p289
aVeaBkxKvRRCzDZ7RvEFRsgg
p290
aVpK2K9QmgC/A6O3qgk+1Seg
p291
aV1776470
p292
aVctlcY45F02Km7HzKrvuRwg
p293
aVfI2ejzkVTKtZrzl20CctfA
p294
aV3TcVuHeOr8cB4Kf4rdvzcA
p295
aVndZazr3vmp+ZpybhYxFp7g
p296
aVSasuGh/t5+czA19inGILDQ
p297
aVHzLhgL5Kbuy4NV2iLdXTYg
p298
aVFGsDyDrcR1oGmGgJKoT95A
p299
aVJDUxxLam6YOe2jwBvqgqmg
p300
aVLchGQ2dMWYQHuD2nBOk3OA
p301
aVJbVx9eV3crQKj3FdfDLVag
p302
aVyHGhFA+y7iKM55L2buhbGQ
p303
aVbOZZ+Pf2ZleAz/eS5g6G+Q
p304
aVMnxDIchSu49jWDTKYcoHKA
p305
aVeEaMIP6djhWlLnQhRgkqTg
p306
aVMZ/fPRSWB65wgLt0/ZXA7g
p307
aVnd+Y/SNK2lhHscYm0FzGVg
p308
aVdvtROPmoA7he0Hfj+VW8WA
p309
aVK1iNYYmICQS9nkfdFgWZfQ
p310
aVSA3DEA4seMWCaqFIrO705g
p311
aVLHNb+pouPoX5V/+YfaGRug
p312
aVpuoU4KdrQYeoz6du9hInng
p313
aVSvvv0Aa6wsDVtZQeCx6YDQ
p314
aV7sf45KJ/fRkLYQZtlDn5qA
p315
aVWOsH3zr6o926yHfXxhdkrQ
p316
aVxQyC977QTBkPswbpITAs8w
p317
aVNnP/IzkKeg56GSp+3jfpAw
p318
aVocQUQMDd1bjvcwCqUElHnA
p319
aVb7/OpHNKxXiLL+GKgUIIBA
p320
aVTl+EdQYPJM7VR/kVcNqy2Q
p321
aVae9uB4I5lgiYbxbmjYm+5A
p322
aVXuDxthx0isECloJlPohkWQ
p323
aViLXjlX7GiTc2dQsqWQEGNA
p324
aVtb3f49mIxH29tQWeVqIM0g
p325
aVNjWhRrrfzvJAqoN/Dq/6xw
p326
aVyoAC6w22x5gUfDVRaZxl6Q
p327
aVgZAt4OWW02ZgGIZhWxZatg
p328
aVIqila92QRKlmvSFotQ1z5Q
p329
aVLTeAyhINde5OSfVwnsn43w
p330
aVyXGSMgCd72Mzsshe+1gLcQ
p331
aVi0kcNhvtBGf01WCD86MzJg
p332
aVIeROGsXkyEQZ8vcatvH8Nw
p333
aV5RlzXpDiwzsvM+pVzEzm7A
p334
aVpt/+5mogOooeum8Lpv8d1A
p335
aV0ZbJ+fM+hKiKN4DPAml5xA
p336
aVT4H3+6S4H+08KrJa+JBkew
p337
aVPmDmRdfpTfvLShLA2VUsqQ
p338
aVEv80AX2wr3P13HJzw3XS1w
p339
aVb3s23/Vr3H6xH0A1XA166w
p340
aVzhuMVG6V+MvR8aDS+l64Hg
p341
aV9GMPZVCi3OHsEBVjyc+lBg
p342
aVRctTkuCB63OxKZZIwydnsQ
p343
aVIX6ynG6ja8AFbaG/CaNvFw
p344
aVvznR/ZSgzA3mWgjt+yG23Q
p345
aV9cyDqgUhNAgafkkD1B+TTA
p346
aVHuVgpt1KCf5121jnBS/YZw
p347
aVb9TlFgj1WHTNmPs7kI38vA
p348
aV7zKEACuJ0h5j/XTcqwShFA
p349
aV+Dp3Edejs/o0NmW1Z9vTzQ
p350
aVjnV74ps8tAq/F4Xp+tV7hA
p351
aVfy1C57wF0dqf0RU3TiYuyQ
p352
aVSw5wwnEsQJfKUBbtbRMDYA
p353
aVvWEyut3x1AP4ihWuSUdTkA
p354
aVKq0b60BLhgY/UTNa73ysRg
p355
aVW84hO8CC6TiDWz/+dqdVLA
p356
aVIiftSxvncZUfpSXujcT+cA
p357
aVkNULUd89lFS+FDml0yTX1w
p358
aVGojWt8gO03luzdcHGotWGw
p359
aVR8jqzH1K0l1RN6k2Ao434g
p360
aVqCx5ImciTAYl/0yTiDzIHg
p361
aVmnAZepwR7G3yVrWCNCNiFA
p362
aVmgIC7DmwRQOJfApUFmvuSQ
p363
aVSIooGAXISad+FbmPiUp1/A
p364
aVQvFHCKLbzlB0nAq7KOCbjA
p365
aVjDpOY8n3W1/bXJDHe6Fjww
p366
aV3HH88c9WLWFk3qs1TvpLTw
p367
aV+5vZbuUjElhXTbU99sPJrA
p368
aV4iHjd9IeC+6GizvS+bKF/A
p369
aV27pC/mwkuXc1V4Gn9D0p/Q
p370
aVN1KA4NTnEOgveD6QLdtPjw
p371
aVCD38yw2BjoYmOpc8xztNww
p372
aV1lRqmMF/4IYz0bkl+Qz50w
p373
aVJQuq0vchmd21liVlDZZYTQ
p374
aVrGX7AL/851ktX+UEFDfCuA
p375
aVdp8YO1V91z6WcCyzvjRwVg
p376
aV/zQ6+GpaIzwfEkVh/zhEgg
p377
aV5NOJzL3EmbGb/Fk/bXuTAg
p378
aVA9Pdd6dOKLkpXT3KopnITw
p379
aVIdtqJtnyc00EPMGEPy0y3A
p380
aViwXCq/1JV0liO4FIwKf6og
p381
aVFeviD2YP+75tdgt/ylSCFw
p382
aVnhRHCj7yZGMPjZDffzpOIA
p383
aVyHgT9hK6e3g7Zh9YdLczFg
p384
aVu3K56P4MdQCqrM+MPkYAYw
p385
aVfKfIWipXg94u2UjKodTrFg
p386
aVgi6N2PWd/SkgMa0cP4ckRQ
p387
aVBd1lm71EXJpk3dWCGnfeug
p388
aVKozh8nvK/Iywsrh5nDTREA
p389
aVm8Z8fd39a5ndYC+zTmG5Nw
p390
aVNqqCg/CZIdlkRyPKxtII0Q
p391
aV1/Efm/+jGPTgbC5GxDTjAQ
p392
aVp/fiYYsuf5yu1u3IpnjGSA
p393
aVp5aXekmWse7HT2ZsSqc+Dg
p394
aV91TQf2UReGrUcspElRpxsg
p395
aVgy5TwZ6//qg63U+uFKix6Q
p396
aVFAcofD/LqNoW2lBvILzZNg
p397
aVqnOCdNwOqeQboCAPl1yPaw
p398
aV7wIikua+vjFChSujKD+0yw
p399
aVQHbP/GkXzq5qiqAXKGCRnA
p400
aVd8Uvx/zQmqRbOyNGR6CfPA
p401
aV24ucPCg2amGiZcJniDxnEQ
p402
aVlbpe9LdEYFuGBoWpxz/j3A
p403
aVXr9+HNYRnJrqSjWRMp4QoA
p404
aV9iP7+rPC/bWJQ9wOkbpE8w
p405
aVeYZLLOb7Tk1/o1x5jK1Rog
p406
aVb78jvzAN7msNPN4IYc2uIA
p407
aVlbgdbYMX0OErcdKAHiGw7A
p408
aV2rc43XD8CHVpKcIplY+DgQ
p409
aVHyMb6rqpjbUTy8pofv5SVQ
p410
aV8FvEUfqA6EQGQQb2PJ3cqg
p411
aVEBzoIIQcxoQX2Dv8DaqZ5Q
p412
aVMyQoFrckJY2rDePdXXzxhw
p413
aVxStuzDgdgQp5UdrIsZXncA
p414
aVnskw7pVkdbpkX1BMTrtmKg
p415
aVcK/I4rHS/Kn3VGy0QsqEDQ
p416
aVXCekZLqDKpT5dBeJmXoz6g
p417
aV1ZllqwKN/88Runk3mD0Q9A
p418
aV2+7yuekF6TM7cEeeMS2ctQ
p419
aVKZM76zi3y5RWrr8Ql6IIrw
p420
aV1VMo/QsrCRgQvn+fP8u1KA
p421
aVdF74b/nzGnmN4r5DOBNLjg
p422
aVFiwbyfbV3AA7fR9yrFJCbw
p423
aVL4C9IbzDE1ihq/vzWP+MjA
p424
aV3Tz1xkHzbqDSDpbLDx2pvg
p425
aVJkdwgcI6TjEncr1M314eiw
p426
aVdiSGWkeyhVUN9mTQW2ExRA
p427
aV5eWT2KidVIoddK/XWNTnCg
p428
aVm7eBAu8d9u0Xu3sQHveBeA
p429
aVMCaDgghwqpdp/2FEvaKlJg
p430
aV6ABHc35xNg03ThqHC+ibLQ
p431
aVY4xq5LVzxNJfOYbJrd7wzQ
p432
aVxOKN+mtRmH6e2pguhsuAXg
p433
aV6/HVGrekmWzSSuNKcVERHQ
p434
aV1rqVx6DJJQ37DSlOysL8VQ
p435
aV0rKg9GXD+RRMxkARdSLUbA
p436
aVov9NXbxKAIgHADJ4QpgZgQ
p437
aVPksGchTdlFJKG579ia34Xw
p438
aV/3KMJalbokAl+Idhp9uJDw
p439
aVb9sgzA1QbMWfZtsjJ5YpGw
p440
aVDD4aAjLH3oU4QfnESTeLQw
p441
aVVN228kkU88QFu0g9o64O6Q
p442
aVLjsVT6PZ57vqRMChQKFPsg
p443
aVit1KbRDm/U++BmEJRHDA/A
p444
aVW/B5TUV5q06ZogYWm5OeTA
p445
aVTihLgxFs0xnNNCSWztAmdQ
p446
aVN8RZs6n62kWawPBgqbckiQ
p447
aV6gsUxsiwT5gXNPjOkUtENg
p448
aVBtPKHhAb8zwmMP90bLmk5A
p449
aVJ8jk7c58PZS0OV3w3U5WXw
p450
aVCfDmgllEcWL80cq/791DVA
p451
aVx7ThcMdmZRpNh0yYNc6yRQ
p452
aVr+bGWUmTxMW+JmzGq2Q7YA
p453
aVevYsogPMzpG7z85LpZEdyg
p454
aVVs7D73PKbwEOH/Vb0bR/CA
p455
aV8O4/hDZwkhgIXGwlbf4j4g
p456
aV+0FElf4SEF6woNf7sXnulg
p457
aV0FegrvJPODkvmRK5//ZqhQ
p458
aVLvxjLxlccE0jPuG1TY3/9g
p459
aVNChD4viXkuoidA9lMC2PSg
p460
aVNS0A0gFzaxRBOM9/bhBUxA
p461
aV3DwstBllNy2JKBU1BqndpA
p462
aVDuTyjyBBEPjWibYhuFjO5A
p463
aVEUq/3RH8vbvnp+Hx5qqlmA
p464
aVc9HsAkjw1GPOLYf6DEUKaw
p465
aVOdhRx06G0uL2MU2DxohA5g
p466
aVfzTPAj6R1l61TnUmLxRB5g
p467
aVOTvnNJmg0QLrcQFoaY8/Kw
p468
aVwyJnjqBuyL93/GBg08sZ8Q
p469
aVR3eEozO20mOBpo21Y7kK1w
p470
aVg09cLA5QYMgTgB/iDNuljA
p471
aV1Y3NBriry2SWx288FUFZgA
p472
aVFpvaHK62z3C5ztcaHxxaPQ
p473
aV1/p9mewinXrdIeu8vO3fQQ
p474
aVsiT88ceiYDSt+1i32NbviQ
p475
aVVtwyRjBK2qF1Uxi5UneiWg
p476
aV+WxFh+WOhPPof/fd3rbztw
p477
aVr8gxBb2co9RM6Ey3DVTWrA
p478
aV2p4VdiSsSeEB6fNLiJfP9w
p479
aVfv6GtmiKioQlEyHEe443KA
p480
aVk51IVmsepRBBKkeD8yWD2g
p481
aVpoT708m3Aq5TlsMfzu2YNA
p482
aVrGj1gRwa2Uh+nR0W5G+lMg
p483
aVR/4ZEvsEuJTS9k6T+SmwBQ
p484
aVv0nunBHGJBwpEOozoEcgAQ
p485
aV92IX/81qOlQb5Ax4luI1BQ
p486
aVd/wwkPIKceiXLyQqNXb51A
p487
aVOVelAV5Z6Cd/CSwxmsk9yw
p488
aV/QIcODjX0EpdHvVJLPavmQ
p489
aVp938j0NnzS/6Whk1vLkqjA
p490
aVrtq9oWOM1I5Puzv0QcUfzQ
p491
aV5cjG4OWD0G4t4YlUG/+X3w
p492
aVVqTXKQg15ft06PJwjcLV5g
p493
aVOfI//+8Wr/8GbzBgfQGdpw
p494
aVuKAScNn/G1rEy50vTU+T/A
p495
aVwDsCF+HHhBXVALWzFMmcuA
p496
aV4TMRjE4K0p5zq0t6TESq7w
p497
aVmZmRXnR83rDRRyKzY1DLFQ
p498
aVgIOnszOz65M9IZ78HOoGag
p499
aVEItdHjYHeF0aMcCydpl1Zg
p500
aVfkEbYp0tjLw6PX2kRBb7Kg
p501
aVuXQDazAj2khzRUwN9+WZEw
p502
aV3UKNHIX2IwSLoqAwWYfz9Q
p503
aVQncJusv07EkDqC7T3RV78A
p504
aVR6tGWczGaE7bIbe3C+nfRA
p505
aVY9Ww4Pb/Uwz47fsWzxeCRg
p506
aVi/xFJsKKp2DG35692f7SXg
p507
aV8igFzb7ZF4IrtcxUn+nSHg
p508
aVC2Azvo2aiQOkprfKz2e9FA
p509
aV9XYWyBSMdSJNvCN5IQOshA
p510
aVKOypYoeXo0MPPNu1zHt4Wg
p511
aVhc7QtwfkdAtsFbdQ18ztUQ
p512
aVC2IpOE++U/pnEj1uJ3UZLA
p513
aVDkavbskY7ZeqwZdcCUx9Tw
p514
aVImRr3oY7dbUFOU7Q1tVNXw
p515
aVI0oQBKDzn6m6/4XCjS41HA
p516
aVCxQm2UjGG7e4VdqZhdmxGA
p517
aVxz7ugHgVNx0+1LQF57AVgw
p518
aVHvS7iCvUUadcelAhwMDMZg
p519
aV995EK/C4sUQKYH2TOYyi1A
p520
aVWTSoicaeim4EIiOeeWmBaw
p521
aVtefSQw02dKhSiCzbasYMZg
p522
aVXo3pZ4Tj/N/dFwV9c28y5A
p523
aVLMtTNpF9+ppajd93/wdhOg
p524
aVn79PeRoZ74wORvDv85XPiQ
p525
aV5QFgXUoYEotUo95SaGtlcA
p526
aVh8i6FvXiyzx6sS5kGg/ZaA
p527
aVfcm/P5l5+6ME0Nc72NRl0Q
p528
aV/RKrSliEl94IH4vFyKqvSw
p529
aVan9i7btf/J9+z1DATupHDg
p530
aVHLh3xGVdjUpDpBM0d5NcCg
p531
aV1r2jeqE2wB07TLrM0Jic2g
p532
aVMJuzRBbwAronYv/fNwn8oQ
p533
aVUw1YxAL8R5T9yGNeZ7wqdA
p534
aVWd6dcfed67r2eSrhnEf4ww
p535
aVIsleoYYnH5ilcTBlZDunUA
p536
aVEd9h0okXAQ3HMWUPbi/asA
p537
aVj7qjuHvRMMYlOctvXZc0JA
p538
aVBQAERsS5AD1lu4ui30eoEg
p539
aVCLCVu7Vhw9pUWhAxw2T6Ng
p540
aVZL+0F8ErRJEfTnREV3aS1g
p541
aVb9bY1utVY6ceFTM8suQ3GA
p542
aV3HpbvrlUMUX7OInyltxkng
p543
aVZRdjNcicUx56e3d7pBxYGw
p544
aVb4xnRkvgfmDPIA0Iazo7XQ
p545
aV0AJWXqb/GzWK3nhAePYkPw
p546
aVvG8PoLbPaY7g42uMoU6sNQ
p547
aViWbm2o2mjG1ar9OvbHx6CQ
p548
aVKQkoAJZRYd1NHNNzOUtP3A
p549
aVflb4gOW4Cr8qDij8tzokxQ
p550
aVQzlxQ3fQzgC29aI9wgNEFA
p551
aV8b93bSUzroWhDWLolGcfqA
p552
aV3ldy7MLxOcETulnH7WE/2g
p553
aVoxAqtCJZTKkguUf3/MB67w
p554
aVXhsN7SFY6neJg0lvkRKLGA
p555
aVJcOEeCLkl+vvdkhwTE+ETw
p556
aVwD6kXAeMi/XGEosMvd2TSQ
p557
aVFjknvD6IFHcF3dMP7kQemg
p558
aVmBszJeC8WYBOxKKQXaj6Rg
p559
aVHEatzlw/dyO2YykGQoeJnQ
p560
aVZVS2hwYvM06332dlIX9DrA
p561
aVjBcMt2Nde1ZzS5diABe/3Q
p562
aVn5k74fWs3uURKoMedFGBMg
p563
aVl6RriNKjPZiSC+LD3IoH4w
p564
aVb+eO2b5+tHmdjWRd5r6ZUA
p565
aVDFqWvKXOXGbMKcd/CvLXJQ
p566
aVrceR/iIW0+xePcrD6sOXDg
p567
aVarsAY2G7MMl68UEAORNTYA
p568
aViN3/3p5CFzmmAU+6TyeEvw
p569
aVC7pQ5UjjGPpY1dB5zBz7qA
p570
aVJMwi0p2mkZUD9abCuSO2tQ
p571
aVlZ2+YmiaV/h+J+I4XrV7ww
p572
aV6IwznDmuVUBcdS40F89c8A
p573
aVsIEtiga5DtpYizVrZov0GQ
p574
aVPa2kUnRyJcAI80qojvi1Ag
p575
aViHaCMhliE8aMAO9S1zaJ3w
p576
aV+h0hDL4hXJNLqGd4wh0L6A
p577
aVZNADYlHW+GswUUsdUzx0cw
p578
aVlJ17ZF0zTftRDhsXWw3ZQw
p579
aVfOEk0KcrN922rliQaf+ccQ
p580
aV7tpmtHsJAcHLIH1JyH6RfQ
p581
aVluJlka7jdHEj4QTdfXh9gQ
p582
aVDBrEv6aaTpdgmQnraxCPSg
p583
aVZTnHiclNeQzsoBjifN0TAg
p584
aVGW+PDWZU52zvXcGzakjakA
p585
aVAnmwbn+6zflyTcrKAmCoQQ
p586
aVnrIdChPKq4UIf4Wrp9RbiQ
p587
aVVxdxWh7BaTfOuEvxx2vkQQ
p588
aVsM4fzwMpqQqsApKCsXn/jg
p589
aVIw4QD7tdMArC8f6kHvcNSg
p590
aVAsc84gwcJ7L953SfBS9Ajw
p591
aVeVmrNvkvXDET03W9CL5O2g
p592
aVm4/C5zziqr02NeK15wD/qQ
p593
aVxdNL/dHuH2mXrwk91cWobA
p594
aVwFNUa5kvcAM/idnHvhbMGA
p595
aVWFhhbsi/J4hM2yjo3klJhg
p596
aVpHWrXybvc2kElwdW2f61Bw
p597
aV5E6kqjGu0qG2rDNV4yEtMQ
p598
aVRGOxfixaXrZw/Izq+fX6Pg
p599
aVUs4Edtmgso4VrmG2qATdgA
p600
aVYKvzyZK2eFzNe/GUZSeNmg
p601
aVACG7e2BqIIYy21VZJQBv7Q
p602
aVS/CJpngiCh4h1YIHyjS4tg
p603
aV61V6IF1ePA2CRcOKTEyrYA
p604
aVpHeEw1oktgBeABmHI8nvkg
p605
aVSWKuBoN4SHUZLWzofqmk1w
p606
aVUqaWsBRv7DYtv6AsgYQq3w
p607
aVzlh0BipxA5S6r9+veMS3PQ
p608
aVqRXsu79Vd0KF/YH0hK3UcA
p609
aVH9lWE5VKeUywxQVsG/h2DA
p610
aVJq3+jxJuJIqVuuwCwuAJtQ
p611
aVqsOK+OptaIqNSAP4ePgLNQ
p612
aVGvXpYUfblwi0wt/QQJcPkg
p613
aVLo11sfOhMhwuM6rkhZO+sg
p614
aVdgUNwOgLl3BLaPo8PzEing
p615
aVspsZG6vJ/aUTIL8zrtaecw
p616
aVrl0+TSyvUDAbYgdK93WdRw
p617
aVLsQdXOjkizrdkTYncOs69Q
p618
aVkpDfCxfHAHsbIXQmzBrT7g
p619
aVKAVE5aWvFjHlzgbslwduIA
p620
aVUKfM+CpMYBlG7Y1NMU61Yg
p621
aVdlmL66SC1OYf0lZZ5ooQNg
p622
aVyC7Q3jF0rXY+ObAzU6IbSw
p623
aV6SnsKOo0ZDWtHyeqa6fwqA
p624
aVH/B5jPpFi4MC5KO67kSP7Q
p625
aV9UQFj/PhsZznPsSwuCFptA
p626
aVhBQCByncXa75vsByDhhWxg
p627
aVaoeOISs12XnZ0RIIg0ruNA
p628
aVEk97345vapJ7qlriJcnhog
p629
aVuMm6z20bwCfEb7PSTz2x9A
p630
aV/M0Wl9wtTwmF4LmDzgwW1Q
p631
aVgn+ICd2ivjL2z2qFcuGRdg
p632
aVa008t2aO2qD7hmp7xt5oEA
p633
aVHrRO0f/uwbaLgJ4UavZAgQ
p634
aVJe2MIiY5G3AfgngS2qdbHA
p635
aVB1ps9314puC1++FhWv5nHw
p636
aV1fPsyUc/dhU5ddGG8evWaQ
p637
aVd9liGk0ToJA9af/jlMRPIw
p638
aVY0ZnQbxnW8FPlROuym+91g
p639
aViFWBu0a2comdrRBCePjvSA
p640
aVUJmOqbZYdb9HJaarBZl/Kg
p641
aVnj777B8++JTlN4raP8Zg6A
p642
aVZ2Pu4piV4xseSfNv7FlLQw
p643
aVSHY14WPL4N7wC51pT05zrw
p644
aV2J2PA03gdAjlZbuzXRQAOA
p645
aV+LXzXfJ+q6ocyHZdAzT56w
p646
aVCMn0ISKxbCYTe64we8wdIg
p647
aV/NnKH1i1vSQgUhnJKMZ84A
p648
aV2GK0pbIUdNG57uZBA7vurA
p649
aVxdovhrbvaoOm1bcI0wUj5Q
p650
aVBvmAPEcasc2YUREPkyqVKQ
p651
aV5VXoV6V7xNSNVR4IwetqKw
p652
aVZWpUudmLzMZVqFFSOGIMNg
p653
aVnerOgAqiWAf0Rlw0P/6O/Q
p654
aVjDIybRra2/wTQ404drXQpw
p655
aVh2tOgFFsj7hnxmTF4FYbxQ
p656
aVpItWkXch/Ugt2wXz8Om33w
p657
aVe2Sljl50uzdZDfLjV2EKmQ
p658
aVe41cPsLBgeLpEnkxbNEfCQ
p659
aVAbW5AqRYqZCbx8JnpYjTug
p660
aVyBDEeLsvS2UF/Ll0i9wS+A
p661
aVzDXGJtcvfSo5cVyIlfVSFg
p662
aVEWae4Ly2EiI32bVp4CLJxg
p663
aVms/85sSx5azYQW1a13ZYzg
p664
aVxl08Wg0zitTHHhgniostrQ
p665
aVmZYjvqjosr/UQ8zCNze8Fw
p666
aVMxH5BKzJrbxA7ihXJHHwdA
p667
aVOkeZA4MnqDYwUto8c/azjQ
p668
aVTjpjEznEj2ujvWUXtphhww
p669
aVRwpANl3iBeOZKzkOoMNO5Q
p670
aVNVmBw4Hx1Ghx5/9aWPmX4w
p671
aVT9FguHV/MVJrDabRdvF47w
p672
aVBEPqjmiZ7Xyg0X53YsSLFw
p673
aVDGGDbGKKnDHT+xxCEUu4OA
p674
aVbfMExKC+hXY+Qjp7HLoqxg
p675
aVAX+ev2i3g1nwXPkQ99X9vA
p676
aVLMlyeESnV9iKh2KsZFCH/g
p677
aV+Vr2UZ+/MdbE2uDfIJxDuA
p678
aVNI2ijp8pl2NvC1xCSGdX+g
p679
aVTjU1Ohg0DFkuaurEk9meZQ
p680
aVg61/2IDGWfwwXFLcmxXTKA
p681
aVxBLHn+SZaycJvD5qH0e9pw
p682
aVs/BOCaJLItcuh9OxYPwG8g
p683
aV3LwIRLJZgdZitSdT0+PEzg
p684
aVMAlauHFjTmz+DhWQjpiCxA
p685
aVFXsX1ghGOTIwh85NRAGCUg
p686
aV9SuW453K3cuC6foHQopBhA
p687
aV8utzZeaKgkpt8ofv9hqBFg
p688
aVgYe4mifErdN8LTqogopPwg
p689
aVLCog3Am8A/NUgLDvN3nZsQ
p690
aVg8zWDRCPVw+ZBCqmC48JOQ
p691
aVgkTJDFCjH+ddzNIyT7Kxqg
p692
aV1D0woDiEsuuXHrIDZe9abQ
p693
aVvQqGvPX93h0yoQuIU30ZhQ
p694
aVl3GG9TfV8LNupsuz05o2jw
p695
aVyKe6Kk77r4CgDoSk33UGEQ
p696
aVF8Nk/kLTScq49GXzz4O+HQ
p697
aVlpGkoUQIZL1RqRetMf02lg
p698
aVM9w22uwUCB7vCd9Vt4RVvw
p699
aVkaeLBxdz1l9jP6NQTNCIgQ
p700
aVbgXo02U2eVSXkiz8dlxDmg
p701
aVJ++3kg39vjq2lLHPeQxgtw
p702
aVRSKVI7cUPBlLj4SNQ1YOfg
p703
aVzq7ZwCXUccqV1sZJQ9Q65Q
p704
aVIH/efuhlmrPvvtLGE5mV8w
p705
aVMQ1bjuqBt2rEK1ecSEVnsA
p706
aV0Dbvnmc2g78wh1TaFKt8LA
p707
aVMuUHQhHc0Uyn5CbKiEcruQ
p708
aV3ig+EPrBja3560ggGwYIrQ
p709
aVBRmwxT6GOXP3pUGjwpFG2g
p710
aVENxucmVncdRUd/+og3caJw
p711
aVA+wDC24o+sawmDIWBrLthw
p712
aVUMXevWeZxuOHRm8XJn0aBg
p713
aVMxjviDWEYpw90sk+LzXsLw
p714
aVW5zBO3Cz03tHwPJoUuyFag
p715
aVYzndWRcroiCGByqrpd6O4A
p716
aV2uro3KRxW9YSO2CnY5JCDw
p717
aV3lilrIKQ9028Rys2TFngXg
p718
aVEWG5vCS9Jpzo4W0O1pPLAw
p719
aVgPi4wLSIrmAdgjez87dWvw
p720
aVXibAqYKP9vDQ8eu13h7ang
p721
aVFUyI5iDvWU+bmxE/f7cLlA
p722
aVwSN2Npn5ZMkjK4TtZrJGSA
p723
aVkzAGnkwbexNUO08KHTvszA
p724
aVXeb3BOICJGJaXKi33X0M9Q
p725
aVuJwONiXtxeRqH7syYo6Zkg
p726
aVfpo3TkIQvRrj0fpDgRODSA
p727
aVqBtU+XsqIExMPY4+iuiBFw
p728
aVmnRHM2Pf5tUv3c8dxH9fiQ
p729
aVHvc+pbgSfbKdV8q/viocIQ
p730
aVJzjBJaenxHQzSbnK34nI3g
p731
aVBcuutHmgOpyM1SwyNgbPvg
p732
aV8+Lu2Zzz4YR9VQIYc+Vyxg
p733
aVTKPA2rOYpcSFbfWy0VydFQ
p734
aV9u1odpWoiu60Z8cbstw3mw
p735
aVVF6J0jvMhqST7gSHKYgWLQ
p736
aVKRaEUPDknu3qLMulRXCeUQ
p737
aVTTRCV3s6L8aWMGcKy/QeIA
p738
aVKPyuFffxlCjWLTdcQOvc5g
p739
aVKc8NA3LLBT79Meh1liUPGA
p740
aVAvHgsAj4lTPV54R9Gm81JQ
p741
aVaG94fbor/tXUoNndiYoeiw
p742
aVZY9O2Uu8JFr2/I+nXQPmRQ
p743
aVmWhbDoasGexgEAtYZJOepA
p744
aVCKQS8c0y8SBcrFUP/G8yhg
p745
aVNrlojcQZ7s4GQQvkf9cIFA
p746
aV9O1QTOgDgdsDWCKdBkI57g
p747
aVK6g8SSEKNJM+mB0DC3k1eg
p748
aV9pEXsIAHE7I/KUdM9Rz3CA
p749
aVcSfVChwcR8+0a88+eQDjZg
p750
aVGwkhGtZQ4/dfAm+pFOWepg
p751
aViNJQme9Nn/EMJFH/50D6eA
p752
aVTnv2SPrC54RwcR46vkb9IQ
p753
aVRqfTuVoxQycnSEGB3jAi6w
p754
aVMF6A456Sq7APy/YGIlRYhA
p755
aV7V8c4GSgYtPKcOeYrnSSpA
p756
aV+rQd2WDvVIktFvgOwfHn6w
p757
aVa2gvj/F3hd/4nXCRDuPNUA
p758
aVIE0sOUs8o/+tiQbLz4XXOQ
p759
aVX2s52YuzwLCa+hRCnbNDJg
p760
aVhBp8AxGtK0gOsJ/UUPfvsg
p761
aVuY/z+9VxvJ6Gcg1L+aRblA
p762
aVBzJAWQP6z8JnE9Miwy4frw
p763
aVMxFAwiea+DVgY61w53/G9Q
p764
aVqWr3ZFLGyGQZLRrk3mHnxA
p765
aVproku1EOBuwz+8zKeJ82fQ
p766
aVpyReZTocw/wOka15QQdG4Q
p767
aVyBL8b81Pttz10kS2CoiElA
p768
aVicAZJpo+Bc+if9oQ84SOHg
p769
aVQKX/egAUVTzGbrHImUtygg
p770
aV/Fqu+iZ0AhT25PikhwsfEQ
p771
aVMIl4mKv++xSO3ZGINJUW5Q
p772
aVlY/q2koyGm0XcXtQi7ARuQ
p773
aVPDVKeIx5C90jeSvBs6tXHw
p774
aV1RYIfsJQLe3u71RZ+tB6hQ
p775
aVQTogoVfWfbJjOHDWZaHPjA
p776
aV+5hHOsqZybvHtxVkC1+gcw
p777
aV0JcMJHJ3an/+f6SE2d47Sw
p778
aVqq4U+qR64uUsgHHeSkq4TA
p779
aVJrDZsn09Hap4oO1+hpM96w
p780
aV6/sdbmVaI8GyKR4fGGOV0Q
p781
aVmCiCcXLu5oyCcq79ivIGlA
p782
aVV6xXJ43xLgc5U86OFRegQQ
p783
aVdf5WPWtzokYa7HhaOmannw
p784
aVzTLu3ZBLcL0qZ7HhUC0Ayg
p785
aVSU05n/z0d6jVGTDS9qYvug
p786
aVxfkUwpWxAS1rqOC2qRTFfA
p787
aVjBJ8QGNnY/8OgUoffrf1Aw
p788
aV0FAW+lBvKPQN8/MiV0qPzw
p789
aVFoK/2/JneR4yBpZly6CJ7Q
p790
aVj76W1mEWuG3NcHTwDvMPgA
p791
aVQ+onPusp2onXALPrr/9g2Q
p792
aVwba0opv2c8aY3D/7ZBN6ig
p793
aVG+g8ALYSB1YbjfAPguN0TQ
p794
aVhjAa5Rsj4/e7ay4/uMXxmw
p795
aVmlYX3dxtMQa4ItoAF+FrHg
p796
aVAb36jUNt3gltY6BFHuXCww
p797
aV7iOcIj5nWpEln8M3Wgsvxg
p798
aVyf3MF2qWydzhJEU4xdltIg
p799
aV6oYFI9iY/LVRZ5KR+n9RFg
p800
aVOXtnsfJpKpw9AfSkZc4+cw
p801
aVIo9MivqMGru7flwlTjH1lg
p802
aVtNsnfOWrUiyFH6hLxDdMkA
p803
aVtzGBiFsiAA8EUAT+drXlEg
p804
aVihnwzrGvr0oGr/BP0m/TCg
p805
aVq3kK9U6CtRNDWgOrUkiQLw
p806
aVGRJvCnfcPS61TeZN5IBHrg
p807
aVQLJsPNqz9jM4az3rOIP/Iw
p808
aVlBINEj6UAPn4fH2anPOy4A
p809
aVtUKQYw4MHJ4Iqw+CKv5hRw
p810
aVqkJ4HAgn0Geei8JyGfkjYg
p811
aVtw64Awk/8wHeL6lZXnBrtQ
p812
aVnoyQpZr+oGIn8A7U626dnA
p813
aViwN1LPrRZ6IPmiWcnsQGMw
p814
aVuRZ/nkWHmb5GY/JoaUxtoA
p815
aVoOxR2EEBhY3sfiQrJlWzcQ
p816
aV3g8KJRlUL9ZhWJKXiWwg5w
p817
aVKNHYJ4MzfEy0bMBOF1tPBw
p818
aVA/Ygu/xkXYFOCckcomyrTQ
p819
aVHCBxSVWUqV4PFQzVbb6FYw
p820
aVIBRVZOvL/0DjfvNz4P6aFw
p821
aVQNLLrs2EUVIsuc7oBaFqIg
p822
aVndJVgGs8Te7jmOy9wnerdg
p823
aV6+F3HBh10jJlA6OmfiVmZg
p824
aV3quAARkuj1lypVOWkgc2AA
p825
aV2af4FtgyPrH3Z5LDdhuMYg
p826
aVkCdO5pjyf89zq3gRjoZQug
p827
aV7b8AyF1eHJtLHRwj7aK3nA
p828
aV7nOUhdjcjiaec9yQ5DI4Lg
p829
aVPlTo+slziFytfhhpwej51A
p830
aVjawlWZsxWRbCHmT7KVpvOA
p831
aV9bvGgCGGvVR61hB6QBIpRw
p832
aVh4KkwGoIT//C+WdN4OB2kA
p833
aVEgGtjyw5boBlYm1NojvGQg
p834
aVkQfzzqLeDdAss3EoGoES0A
p835
aV7yrwdt32Csd/xqHrZ6JfxA
p836
aVfOc9r+gf8lGIxqYHST2FZA
p837
aVZwQSn/b7Va8CrasMY9HpGg
p838
aVfo9M8hay+JHDSYtIJUbr5A
p839
aVKGmUobJOy3umPH8z5nCH8g
p840
aV4nLp2Xil80yiDZLcHtpQmQ
p841
aV1UGNhcRwTIFMAAHICDjFSw
p842
aV7EauquU9tkwxJjOF+mfJ5w
p843
aVgBVYd0RBiB3peUFV0u+ssQ
p844
aV5m8FHLFZKRJYGsn//IfdbA
p845
aVxVYA5g+nLMHB32gdJu/NxA
p846
aVr1lpYMm+2cViuZGXbu0IZQ
p847
aVrAAv0oFqqt/Slvu4SahrYg
p848
aVDsy8S7O6YAEY1yjf48xPsg
p849
aVVGwH+noMNe+3RQBlmsCi/w
p850
aVvPXuMccrvO2C/yTp38ZaeA
p851
aVwiHjWUOYAiGqWVTWIvmznA
p852
aVRgRj3o9EqaqeqiaT+I/4RQ
p853
aVfcm18gLnVKhiNaTQunwGnA
p854
aVturd+9CckdZ5fpB7YjXEBA
p855
aVgBSjWC7dvgr4fAbsKU2rtA
p856
aVrFXDIurMSOep6b4z89Ol9w
p857
aVuMQRGuPcV2OopKRMpyh1mg
p858
aVoGWjtSvicw/rLzgtTDgD6A
p859
aViBAEyE84z0/mHmyYb4VubQ
p860
aVIttfZumvHh2Q3S7jyfcKDA
p861
aVgm8F7k++eftjEjB5FWxUTA
p862
aVjx0JrVKdb4EnJhkmtkdJhA
p863
aVPJM1tlrQ1Hl4hO9Ta2v3aA
p864
aVID1G65yMQPCn2LmxJ99y8A
p865
aVibMry4aWCyP7cjh8rpDbbw
p866
aVT0pf7B28H4XVnL+e/usJyQ
p867
aVOfPkhH2BcE24DxAz1WfYmQ
p868
aVYaxrK7+9NdkwECegcvu4sQ
p869
aV0pSZjJK98TtrJgyg49CgwQ
p870
aVHwLwlm30M/8ZSGZjwnrY+Q
p871
aVfL+Mp+OBLmzl/krXli3cbA
p872
aVKctSlf61Anm9DepHNU1OlQ
p873
aVDXsW6fycC52LjvljCbEarQ
p874
aVqevA7S6CkZt1fNg2DsGd6g
p875
aVUETOlddGWkXvjavjsK/S6Q
p876
aVq5n+sgkl47fuF8oaKDrKBg
p877
aV7yR8inNHbLe5dk5aTWvI3Q
p878
aVnaQm6vqB2x2lW5RzjR2KyQ
p879
aVFFJ17z2Uu0oWHlxQ3I4jfQ
p880
aVwyXD1O26Buq3VWHAij37Jg
p881
aV7MpRpY1KVO4NpMex1M/rXA
p882
aVS1GaLBczsuForGi9ODjByg
p883
aV2l7GVs6mT5Vfpq4PoS1Lnw
p884
aV5ZUhWBPscXPwtULjxSaqWQ
p885
aVcGIN9dESDMMiPAyMBnXSGg
p886
aVhV5IaPnkiiLXfBzl2ykLEQ
p887
aVgeo+KK+oCZAuqRFJ6uhx3Q
p888
aV22sjaaeZyIzn/zvE6jbo7A
p889
aVJGKAY/KPd8M5OlB2P0tqMw
p890
aVcQYNwfwD/w70Vzgl4QjY4w
p891
aVX9+yCjMrevuBlHV4oBSUTg
p892
aVb7s6BsGEISIf87gyl0uFNA
p893
aVlUxu2nCsajrTu/4jcGY5cQ
p894
aVaIQFDrMw83d8YYAF96o2Uw
p895
aVFoDGaWBGtiDcaNodTajYog
p896
aVLhFcVgMLLWStQ3Pqcu8l4A
p897
aVsIiYbCMmFvEA44LRBd3DTg
p898
aVStF3b66lFqN/WSeZl9Z4NA
p899
aVYglB6dQxVUbvHRl81JW+XQ
p900
aVZg9WAqvbeG4N+aOKKik/mQ
p901
aVSPjAYQKiLRi43jU7Uhs6KA
p902
aVqk4xYp8EXiXDdou8VS/vEA
p903
aVa6INAhSK9zxoysMYPJlZWA
p904
aVce6hZD4U0GKIxKkWSwjKbQ
p905
aVIF/ms7ExOgubY3fRQIl4QQ
p906
aVDSbskv5D5qKxR/MXeY2lfQ
p907
aVHuVrLfI8kUoFH3tdq3pj4w
p908
aVRBoJNyRS0YAjuWqWXqOjXQ
p909
aV3ba2OnCEc/DCVTezGO0f3Q
p910
aVQB8oFaXNtog3ISZef12Wnw
p911
aVl6SkOCYtw+H6v7wRclcHpg
p912
aVVcgm76UFAC072Q+Anf4GKg
p913
aVuIfcWiC8oE6Iz//mO2AHAg
p914
aV/91mjSEVhFBx8Q6h2PQcSw
p915
aVwCIkfqtEdCs/pEA7kMW8kg
p916
aVoe9uoiK6N6LTjqCPHTH3Eg
p917
aV888C3iZCEAy8PnGqO8qqYg
p918
aVfTatJb2nTpu8jSTqmvdB0Q
p919
aV8+7pUZ+jiWWq9MGhzzXXUQ
p920
aVoqZREFWtc5Xin+5Dzq9ygA
p921
aVooXhxMmG0AUDD0xBkbU7CA
p922
aVuWhRg5ZstkiUIL1M+DTi6Q
p923
aVVNE5JVv6QxdadDJdonTbJA
p924
aVH7eVXpSGRsk7UAH7Zfv/Zg
p925
aVGMdM9fVK5CwO/31pjnWvVw
p926
aVOtG4L/+1uJdJTc+wQLdSlQ
p927
aVBKzrB44G/JZoC3Dz9wiErQ
p928
aVOgf+pwPaFteLu45WFSz5DQ
p929
aVeMVNwufvCsPYGAuU00TWTw
p930
aVjM05yKqe04dWojRCD93E0Q
p931
aVYFI2SeQk0yG8XhG8k1LkOw
p932
aV+JXQvDQQyTSprPfu5NY+zg
p933
aVEMlGGRix5KGFYnDYidzxmQ
p934
aVCym0m91QwKm4C9HWsAnKrw
p935
aVbA6vnACCkjIP4Qz84meECQ
p936
aVAGih2UQ/gVYfalsYhxil2g
p937
aVS1pQcB+TgqTnYcJWtV77oA
p938
aV4qh7wYJcbYhSheHUAxvBrg
p939
aVugnAY34+pNcjsyfkV0MoNQ
p940
aV7ZncyQLlgBFPMAsXKEl4rA
p941
aVWIe1rXeB84XlH9Uj72ibPA
p942
aVBCuw1Yae3NrS0uHh3gDzDA
p943
aVNjfRIu0SZWdwIci997e+kA
p944
aVUPqVjpEowl259bhPppttfw
p945
aVSLci9sHTuIkSI2tZEfLK2Q
p946
aVIq2OFQWKBql1iuSpAUS3VQ
p947
aVRiuaiOzO1s81afg2R7Oo4w
p948
aV91qgoW7YSoZLwA7834BkdQ
p949
aVuZuJq7FpSayvx1z1HedDvQ
p950
aVgE9A0Av7dEQSIVCLSaXVmA
p951
aVRCdoPyh/xwCNvRQfSCUoWA
p952
aVoaZxE90XqdGnpEQFRDLwxQ
p953
aVt+5Kxsoky5iS38ktJ/fxyQ
p954
aV7EYQvAInC1ucUzGzxJWSkw
p955
aV+TNBTiEeYUZnWKfKsTwv+A
p956
aVROXoeWT2xqqwSeCgx3EdDQ
p957
aVB+cut6UgdT5JoaS/3b6GYQ
p958
aVuru2UOsnBVlL+iHX+JZ83A
p959
aVlr6iQGl2qlSZzLCtYUjW7w
p960
aVU+kC0fPtggNwKNWYy2kOPQ
p961
aVuqVo2gEZzPmT+Q2HvGsN5A
p962
aVnfU9Gfx3wia6wGeAlyypSQ
p963
aVeHofx78bgRviEqR2O9Mq5A
p964
aVt7+Rm8T/jRxYDD9lsT5rQg
p965
aVKEwFXODmO0enqSUyUg/AbA
p966
aVA2wcztdIdTTgZtBzdTX/yw
p967
aV7lTjVjXpDSo1o5r4/LhTEA
p968
aVA6EEDVRJ2LCjZJYQUXuzSw
p969
aV6VzducgWTA0Qmnbe5STRyQ
p970
aVFjiKGEZ8lqpEZCyKcQ3dDQ
p971
aVJnht4KfO+0is+Wa6pxfcxA
p972
aVEKsiaQUmcBoZdG2FbQDdiA
p973
aVU6d0BGhDED1FhyIeT4IyBA
p974
aVK2t2qHWIL8yXw4omdAvA9w
p975
aVlc73l/iMTWZi+XyVglgJ2g
p976
aVIS6iiHMmaAqCQu76AmSihQ
p977
aVwK/euyc2DZpAZ7GuNu01Zw
p978
aVNpbogT8Hf13BFcUr5HlNIg
p979
aVO9rf+CqjbEAWZhsfZW+gAg
p980
aVtB7G2oPGG4Cphdxd7KcnJA
p981
aVPmL2YSY5sCyZnWlG5Ba4Rg
p982
aVvLIZIpKX3K+E3MTx0ZooiA
p983
aVnSc6nqovZO5wsmsytfGGwQ
p984
aVkyGeJxuEjR2OYvmp7eEyVg
p985
aVSfYMmkdER9mixXPoK3OlSg
p986
aVgC6q01hWAjhbsKUPvmfDmw
p987
aVdHnE2JoNVNclJh2cpWA7+A
p988
aVBNYmg2OAknOR0GOJf4loig
p989
aV9JkcI+4s3NEf6GAHVyCO1g
p990
aV9raqmGvdLyCB0Ty7auQOSQ
p991
aVknJXRX8P0GoZgZi53RKsCg
p992
aVOW1NLG6H3qf+BDrexxLIhA
p993
aV3jdMSlZglEZAnOlmAurh5Q
p994
aVthnahfllW46pmcwUbJnf+w
p995
aVly9I2THMCjjv9gCYcVpWMQ
p996
aVqFItNL13EF1s9wgB9ENfqg
p997
aVhvG5Otm1GAgI1qTOUQn+gQ
p998
aVuZz0jqZI7KK/oWcXiemvBg
p999
aVTAVgyLW+SbzkrU/YUAIJAw
p1000
aVwkaHaer+nAELcc+9UAFiOw
p1001
aVpC5zuCf0UY8g8TOmfcCIRQ
p1002
aVJ/MRE0h1byBxOS3nscCzRg
p1003
aVUL/1L0GvZy9c7Dc83cmeKA
p1004
aVbAzZlz9aZyjhgFa0dWqxdA
p1005
aVuwsIGbIB4ktlhz44JKQKDQ
p1006
aV+bykL+u3EnukIqWcwnt7Zw
p1007
aVf7RIFJUAtMWCb1loGcleJQ
p1008
aVYhTrBJVocmsiWEaYGU04Wg
p1009
aVJcGxVV1KOSG396G45yhDiw
p1010
aV0HHrlZ2Bh9WWJbWkLrtVMA
p1011
aVJ/5tiaV+wHlIq9QS0eK5Pw
p1012
aVwDJk/vTIsni+n3Ana10bxw
p1013
aV6nDFsX2b9krMLnZS/ulE9A
p1014
aVB5NlVr9GhdJbSpfVgmbsBQ
p1015
aVeK3VeB7aNr5pe69Tz35eXA
p1016
aVnS/EJa2Lgd9pPIc7RiLloQ
p1017
aVdWHLggmNhKS7J0QW7MZDtQ
p1018
aVrB7UQKtCY/jj5qKDbrkbEw
p1019
aVC9KBqj80l9fqptzeOR+l5g
p1020
aV/2R3CNobZkFgd/6OHBQQJA
p1021
aVsP+WPazNTSrxZlwmiBSWKA
p1022
aV1srxPsnzHgHY/HRqJJzQAQ
p1023
aV/fEm26miWIs5CT5UwqtSuQ
p1024
aVDzYu6qwKTCHvyvM7tTa0qA
p1025
aVRv1hTJBpN6Gmyuq6vVzp9A
p1026
aVWNSQzYmbaN8BNFgW1uxkgw
p1027
aVCu5YYjnIzjMFVZgbKHQg/g
p1028
aVvWpuRENcW8SlK5O5tP8wUg
p1029
aVIAsZqrB41zOSJkyHH/ECaw
p1030
aV3V9S21h3fhOILvtrx5aexg
p1031
aV54iozLO40MaRmJ39hW7QBg
p1032
aVtUao2jl5aNKf6KdSnvt5ew
p1033
aVQvyocuPGKJjXXo8V806bVg
p1034
aVMmOXLCMFSH+B3d0jnqwV8g
p1035
aVo4weB9i8DZ+CpjxFV3xvhQ
p1036
aVPJ10b1CFq27DGHBiXC7RiQ
p1037
aVUnsftpUgpQZD4PSU7LMwUQ
p1038
aVlnnRh39c/c8Dk7eQBRP2yw
p1039
aVXcfBI6yy5zMD7ufCT//blA
p1040
aVyik2sAWXGWU/odMfqKLb3w
p1041
aVqSSmGqCS5Jax8rVk/0tLFg
p1042
aVXOWC7Gy6YSCIHaW18oNYGQ
p1043
aV4nb75EcSbGS1pMhNuTuKJA
p1044
aVSTyyVTu8P8U/p1QgRCwNFQ
p1045
aVWMdmf7iVYX3GrmnJUujd2Q
p1046
aVHjIO9anpEMDIY90NnYWMXw
p1047
aVE9gPmYgeYR3/oJ/YxgFpuA
p1048
aViD8JKXYB6onyrQ6bQ4HyXQ
p1049
aVn3X33FNtfvzotlwCOopzGw
p1050
aVCbaEedN+6hbP7XjlKJceFQ
p1051
aVj7ongY6IME5skBDKFw7mjA
p1052
aVwWnXqlU0vCxd5ObHJjlLJg
p1053
aVRNaet/F0FwWP9bDmLEQimA
p1054
aVyVdSnT57r44IgL6yL3sx1w
p1055
aVB04q21/gqTUljCDuMC92RA
p1056
aVRO83CweFrEHRAbLbznq9hg
p1057
aVWqwdS3HE76NzkpJYELjMeA
p1058
aVdicCbbC2OnOYelkofwK7UQ
p1059
aV7C9yViEADRim97lDHNSFzw
p1060
aVG/yLfWrMGF2XcBRpBN4rBQ
p1061
aV6ZnWswBPmvYN7Kp1rs0Dog
p1062
aVEZ/lofYziGzSr5CnJn2xgQ
p1063
aV+oMzhnebyXchTSnax9jxlA
p1064
aVDeZAZcPNNQ5w+Wb+5ujZdA
p1065
aVM9jIOrhma/YPdfm1YaS2QA
p1066
aVmMeNIHCPYE2rKQ4KZ0CXQQ
p1067
aVTF3bpXhorRUttcJ1qPwRAg
p1068
aVxn1gnKGpE459zGcw3kTFiQ
p1069
aVL8etj10rEKCA3/kzMqM6gg
p1070
aVWVbtnzPoYh0DN0aatiVMfw
p1071
aVe0QLFea1oDxqduPQtuRpqw
p1072
aVFz0V5au5ThmCjzSQTac1gw
p1073
aVq+1twnJOjDj5bcP/AInZZQ
p1074
aVeyQVrrCFc5xMB7LlKeosDw
p1075
aV9uqe68sAoE1x+vwpJisUuA
p1076
aVAqcSjS52QF0XhVkqFm/W8Q
p1077
aVjhWEHA+p2qikEmtrxmGorQ
p1078
aVFwdEh7rCCeYNDOjGgKq3QA
p1079
aVK7X0UCI9XSQcWcruDiEiew
p1080
aVU/6hdktTqx6lTzU3RHzpyw
p1081
aVvcbwrlXCiDO8+9/jHxQgmQ
p1082
aVd4+KAWiy2s/SLtdr3PmRAQ
p1083
aVZf+9WASPReQtl5hlvMkf4g
p1084
aVfu2qf67KajpgRyaUIdw1Gw
p1085
aVU+/f4Y2jQlGz+iT2d5WyUA
p1086
aVUKM6XOqzIv8ewzw/xqRMKA
p1087
aVAEf5jKmzZVdZ0dRL6BaXFg
p1088
aVkCGd99EvCEc82A96xmIPbA
p1089
aVBUhs1uKTR9k9ZsSAfRRv2w
p1090
aVgR/RQcP4oAfSXU/Wf+xLMA
p1091
aV7Sl9+F8zCG0CeCN/l/OhZA
p1092
aVYnE1SstS1OmDgOU7LRjecA
p1093
aVOZ0IGFyj0IgLqQqjpz7P+w
p1094
aV5qeRNlI2fG7F4GvZrB6j8A
p1095
aV/H1PIoB9SV88S2zyoA1Ljg
p1096
aVujTGCZEgzR45CsEqSpWOUw
p1097
aVQ+5/nGrWJK2pK7W4JSKcrw
p1098
aVGOTqlUZWZcHbrFvEcudC3w
p1099
aVXBBr8E52Oy+oyv5tyCI1xQ
p1100
aVU/Ny40tiDt4TQ2o/Wwfq2Q
p1101
aV6H+RLZNz7ZinKi9Wp6dYBw
p1102
aVOHORieLCT08+mYQh2ZMUJA
p1103
aVnrqAVlm4wGUR4iyhzI/gtQ
p1104
aVfog3hRBDdUBxIUVEfjy+Jw
p1105
aVYTwBDFz1+IhBDXPfTJJzww
p1106
aVg31YFF30vwS9z19TTH34TQ
p1107
aViyEDpNWiKyIOJSM6YN2raA
p1108
aVb008A2MNI98+KOLYb7qfZw
p1109
aVIv46g3OhOyfLWAJynWmR4A
p1110
aVNquPRQxpAF4Yw8hlIGE/5w
p1111
aVQf977fJ9QjcaD3UhRQhMqA
p1112
aV4UPqrCM2TxHzRfxS9p4fIg
p1113
aVkIbanshKysxtdDXKqLAWsA
p1114
aVEt+lOdftFWGjeN9Uj4u+WA
p1115
aVoIFTPiICrEO4RDtnVvlUbQ
p1116
aV8gM13fJHYyXN92pA0VlXPg
p1117
aVOW6NE/GlSvS41RU0kzJ9XQ
p1118
aVZVSGb2k1yWWYvAJ/nI9dNw
p1119
aV21KoQPqjA8Ii48ggYSve1Q
p1120
aV4dFTX5/fIjMSAfkjOoMb/Q
p1121
aVZ6M/eRi+ngR9zUlyMoPwAA
p1122
aVMNYI/7+iNqHv5Ml0SresJQ
p1123
aVNY8rV+KqPt/iBDPSkHLgEw
p1124
aVMrqtjenJYoDXNMlwBURHyw
p1125
aVkiOLlfLa0GeoDFzygAH+IQ
p1126
aVnRFu3e+4EWpEZlRAfmHB2Q
p1127
aVM0LpOz+X8syfN8t4qix5GA
p1128
aVngHqree0tbZShnLFU8Mjmw
p1129
aVKcqRKZOuAO0f6+svGP3wcg
p1130
aVYxQ6ZHBt9XlaaYQ2eVxh6A
p1131
aVc0L8gTy2pPylEGtI3XF0/g
p1132
aVCV73BlSagk3ARk/TnbHJ+w
p1133
aV93OAq6jJY2y8E2+FhIXvKw
p1134
aVfkmv+5gwtECqji83E2zHBQ
p1135
aVaGq3J90sCvqwpgo1KynPyg
p1136
aVXC8eyZlDpN4PQb32JboBTw
p1137
aVtcZX4Ou4rjUyNSOJx73LaA
p1138
aV5JxjfxE+xVP/5+MlA0Q1Zg
p1139
aVSk3JJD9n6dW8J/mfhMUc9g
p1140
aVbhrzF0Y2jiO3CkHwzH+wXQ
p1141
aV9F0pbnI2nk/kYwFgAfL7yw
p1142
aVy/xXiv3wrsVNOi4N7qXbuQ
p1143
aVc7viTQ2UeiKP0/S+3ETwyw
p1144
aVq62yZh3kwHvcV796CECGXg
p1145
aVNYBqvBAuFAVryXUEHx5eWw
p1146
aVIr5ondonH45KZUPlsjjOZg
p1147
aVONE7bQl7fZFP/7xbiRDX6A
p1148
aV0Ei2nxpcyjD/PThFLB630Q
p1149
aVK/PGt7T//MrZcpcRl2TNrw
p1150
aV4vOQaQmJoWxd0Wpa8PC6bA
p1151
aV+YZaQHSTtskMapM4V6toWg
p1152
aVBIgBaLnr2jBZTWBHJq804A
p1153
aVRDfZSQMt4nxRA7iLKGTmjA
p1154
aVwY37MQi7DVq05/5rkh7waQ
p1155
aVKLw3O2Xzvs/2xbMRSE8ajw
p1156
aVjZNWftUBXNpUz/1I5hY6Nw
p1157
aVJsKupkwEow44h6+fPo0QtA
p1158
aVDjyX7QB4HqWfWBBBn/NTjQ
p1159
aV3+4Zzjm6W7cJSyEytmKoIg
p1160
aVaNAkwHDhYmsVEqJoG2d/TA
p1161
aVuOESe2cB3VSCOadHSxdrRw
p1162
aVlyQEcqab+xKjjjzdyy8vSQ
p1163
aV6mgDFBFA6kiAW8Hky7oYgQ
p1164
aVAzO9ynrm++h0HgbFTh6oAg
p1165
aVq9CcdxnTsyN2MS3M3eCLbQ
p1166
aV6hgH2pwBpQP4OrFC4aEMtA
p1167
aVW9C+woLnRZ+Vr93bp35O/w
p1168
aVcM07QljZFu2TMmfU/G2Dzg
p1169
aVuejfDByCXFkFdo/yf63Emw
p1170
aVf6TWi9sI2SizOQg5r0xo1A
p1171
aVNNEs4sK30TPgsJ8Dk/QdaA
p1172
aV4/egOZu5OcO8VnzROAfS6A
p1173
aVjQhUIIL4AzG7Op//3dPuRA
p1174
aV6sTOm00eM5UBWjanqGmdvQ
p1175
aVdI1As5dJA8g5NpCFNtSkEw
p1176
aVO4b/Nzk1jxh0LtDlHDqOhw
p1177
aVJUHTufPW0XwgMEw8RYu5Ew
p1178
aVX2jtb2QqNs/R2BwnLywN/A
p1179
aVqXSxCDHWb5tHzXIL+HoDLQ
p1180
aVM3Zj8v3+TflMXKpV5boKpA
p1181
aVvl34UryN/ucqqReFS2Ek9g
p1182
aV+mmJEwuc8rAHFBI5DkEpRg
p1183
aVGFICe3l7VxMqC7zXUOnM0g
p1184
aVvsvCgfoP0IwO69wLxlZjiw
p1185
aVcUi9pKG9kktv0kqz3LR3sQ
p1186
aVtZkfWuGOLoL+OePclYOeBA
p1187
aVy4NSI+i3cSD6txf5qwIPHg
p1188
aV1ZAvCwx7A8RllqekCPXK5Q
p1189
aV1MNu+PILYLonKx/8Bs1lyg
p1190
aVCBFE47N1SujDaxR4pkorPQ
p1191
aVBhLQmE1bM0gq6VA/fWQvjg
p1192
aVkfVn9CLApzpCRBAmhUsj3Q
p1193
aV5ANtKNSGBdIr0xq5EuSpDg
p1194
aVIKGCP8c800JCHrSCBGfSXg
p1195
aVSBggVQzx6dhuC4fnWZYVhQ
p1196
aVT54zcJ3SSUIorZXkJNYlBg
p1197
aVYAdbsHxyxCfjZb0yUWmlKg
p1198
aVYww+7T/rHE5o/cSE6MRlLg
p1199
aVEydJHzntIgCnkQ3YdksQ4w
p1200
aV2MkWG1yEQwP9sL8pxmCDPw
p1201
aV5dtlDK+8hrJphE3ZObPCSw
p1202
aVegascjZmkP14LugOJmcCCA
p1203
aVLCpDgvVgm3RH85KwI3HomA
p1204
aVegX0ZbxcQW0laz1vjuA49g
p1205
aVvMuhQ32nIMXZOrjYQio15Q
p1206
aVN80DehpuIXfJsibXc42JrQ
p1207
aVN7CO2SDKfiqSFPkZ6PFVLg
p1208
aV/YKQj8ruLbdf+HZ79oOmOQ
p1209
aV6hqcNMqlznDaZLk5+BAAdw
p1210
aVvnjmKRAX+NHeYY/ug8Zu9A
p1211
aVHjh0bJf7nh9ddk6wrFxFxA
p1212
aV+8FRmjpaw96ZbQqYODPx2A
p1213
aVJT2U4exc7GbCdbmucNs6MQ
p1214
aV2Dusjwfa8McQPRO/udWYZg
p1215
aVkztyNH3frAr6/kVhs1O6fA
p1216
aV4Dui863oHiww5pwl76fshg
p1217
aVIOM+4CPN1BRTPZyJYYdISQ
p1218
aVMHzi0hUfdu1r96TTDrBXhg
p1219
aVgeLbF5k76ZaHrsj50pljoA
p1220
aV+1zAM50SoiSt6KCqXkMsmg
p1221
aVN6JQjwPK54GOi//dVSMi6g
p1222
aVd/hQBbIEIKZhpg3AVGRWYw
p1223
aVNzmR7ECHC+fTcIDmwADmdg
p1224
aVEdwufW1jo3Gv4CLfBFbQ2A
p1225
aViHaZ0wVilLjfreyekSZQlg
p1226
aVljIvYmU5aNgJU9mTD35aQg
p1227
aVZGf326vx8S4jaG40UKGq/Q
p1228
aVDHxPdn8qx7OqmBY/OsthTA
p1229
aVxLZL/FwYg4pa4cvV9aya8w
p1230
aV7gfmWJBJBrZfWVq/hRTDJg
p1231
aVzfriumJ0cyMwkPnyRfF7kA
p1232
aVxjhZL9eTwhpKH5cycnV4ng
p1233
aVo8Ecn7M5v2Bco9vmGoyhDA
p1234
aVpiahJscKWYwscAwAvZxMjQ
p1235
aVhCIAFM0YeOTThSZBBcLBgQ
p1236
aVnKsW7llVZyhs0nCY0Q38HA
p1237
aVQs3e9jmW0HhBSgB+8tdtdw
p1238
aVDKQUnFhQlsmhY9Y+YXTq+w
p1239
aVnV4/sCgPzM2djheiw5svNw
p1240
aVYRXyD5Gm275t27NjTtcPtQ
p1241
aVlhWTyWyhUcn4rX2MCMVflw
p1242
aVuVwZB5oGHvpSgQg0582JKQ
p1243
aVA1HfIugzHB9jykE3PRdlYw
p1244
aVkrLbfEUgkWlZMfNLW79zdw
p1245
aVDwd1cDDUFQb4qR7Rona/7g
p1246
aVAzy21lIQ9IIC6IbnJq3woQ
p1247
aVUz3z1liZtakUS4d1CwgtuQ
p1248
aVtIV6YbHv/B1Pgmva2hLg+Q
p1249
aVB6qMin853wmHeJS2nBoBYw
p1250
aVIuA5bbJTQgILD1akNLXocg
p1251
aVKWyKvAkEVqGjflnX5Q0vVg
p1252
aVMmLYs2np2dCR07CRAszpjQ
p1253
aVbYxmaa0R3NBzANWgB0Lpiw
p1254
aVyJTSMPFIUBS9v7llildFzQ
p1255
aVUmd1+nt5dckAbDGSH5HaDw
p1256
aVrqfLgxl5Gq+aBE/Uw+mcZA
p1257
aVjxQMyzFzy3W2ACvw8v9Zvw
p1258
aVTxOERWgapfS8HwGf/ioS1Q
p1259
aV8etwqeR72CYKRG5+CwNB1w
p1260
aVqGik3Esvu5fTHVN09etWLA
p1261
aVlcz0n0dCFi8lGd77kq0SlA
p1262
aVCper87ltt1rqZNl7dQuMWA
p1263
aV8z33KASCGgAHVfxu6HD4UA
p1264
aVArh0H/Dr+GI3YZ7RD2/J6g
p1265
aVH83LOvblM9QE1qkOZ/0AdQ
p1266
aVvzXBSIg2HtNGc5tLKqfiag
p1267
aVeL69WIlJvsfVUG9kz+t2FA
p1268
aV9KyCz0zL7VASpLxXxepiog
p1269
aVIRbSYZb2qjoW9tA8Q4ENtA
p1270
aVTNHKIbdKgtmYSLIigHR+wA
p1271
aVdB6O3+FWAPLp2azWLtkexw
p1272
aVPc3H0D9zzSuCIMZUAmOjnQ
p1273
aVr6N47SOPkfiDotN6HE065A
p1274
aVoXQcn6gPOVQVZEUq22wxaw
p1275
aVGDHTEHzSpQO8LfMorhuxEg
p1276
aVNGvV0c3yZNf6a0h+9zxBsg
p1277
aVG32qAtOpX3iFPDEbQscReA
p1278
aV+XEzNkLpGbXaI/PBBi/VOw
p1279
aVPQcNVVXQHxppOGxdzBULSA
p1280
aVZ10eBtVJanG2dHVsGNw8pw
p1281
aV9G4IxW0ND0HN1LTMopYixw
p1282
aV8WvzGg6gibNWSGQxjI2JPg
p1283
aV4d47pYil9K3sLM6kV/o1NQ
p1284
aV2+a+YDEhFjxq6oT5UI0jGA
p1285
aVng/qGc9bdj/mMzs+ChXkqg
p1286
aV1y+XvPgvF2Vht+NRtHW2tA
p1287
aV/Xy8BjtcwvEreEmyTKbwnA
p1288
aVEHVx0ford5XFRpW0ez2g2Q
p1289
aVb6p6mhM9XjqSh2LOq32QHg
p1290
aV2oOUHBU+NAMi+Du4tZ6ZEg
p1291
aVKolFhDly2nS9AKklgEqnDQ
p1292
aVJYJRtw8F0ujvF+da2dupqg
p1293
aVWX3Zx0Fx2OMoqQxOx46wbA
p1294
aVRNJjHW29Wqilhp/jw1uYFg
p1295
aVd67Z3nBg6rxmXpKJ7g+rCA
p1296
aVlOXYVg/KkzuSM5tjl960IQ
p1297
aVoFmD+4E7Ah0xkI+1U6tm9g
p1298
aV86j2wSYvihWVbKVu7oHDMQ
p1299
aVzku2ZIyciWB01bE4BhC/gg
p1300
aVN5SInAj5x+yszhxQTZfdWw
p1301
aV74BqeVn0WR9ZNLOg4MAOmg
p1302
aVCmU/NaFsn/A2hzFmKqP70w
p1303
aV650pXE1Fmu/vdReMxyq9AQ
p1304
aVjIJ1OZUJe9qG/mY+41F+cg
p1305
aV7KOXr0FxLa1ZbDsLlSwaDA
p1306
aVqnIMl/oVStJvdZUJ+6LHgQ
p1307
aVxk3VUwOdmj02G7LOHDtvZA
p1308
aV17er3FjknxOlIKiEid/xQA
p1309
aV1s3s/3zMj2Dv3NYr0fYUZA
p1310
aVf1EzbKzJXC9lQVly01UkVw
p1311
aVwOXzV26CUkCbK2dVQ9y09w
p1312
aV0N+Nfyh3XNP6JxfmaITzaA
p1313
aVQ4q9J5sKrdmnmE2fq6cMpg
p1314
aVMcsG/eicsL6V76CWJmIjag
p1315
aVXtIWB3Ui1hM2fidSQcyIeg
p1316
aVzjVCPv4Sb42Jw5fPowKyQQ
p1317
aVtLIhE6xyDff2mZGYKBct/Q
p1318
aVY57GBujc29kUgdPCw7e6fw
p1319
aV5rKTD5jtAU0PTorb5rhwXA
p1320
aV/GgzKujiZVWtg4a+hrDGOA
p1321
aVATQLZcQWtK7Bzuw8s+L3IQ
p1322
aVb8kIUmRcIt/09/dgyJ1KCA
p1323
aV3LJs1wcOkAqjXmWUCWk/hA
p1324
aVg0YB53758MDkDipikZM+lA
p1325
aVM6C2GO0oD8T4B5wTltLD9A
p1326
aVQpG2oFZAH6CCMUgr6YsmCw
p1327
aVZy+Q3ZfhvhIO3VdiC2b4Mg
p1328
aVKtwmOWOiLcvJIpsLReP+zQ
p1329
aVtdC/EM2ZGQke79Zgx5GQmA
p1330
aVau7Hg8sCORsHE+Z5NmpjKw
p1331
aVxKuu3m4XlFqJOWAug7eRVg
p1332
aV8HWyCOg8fy8wxKwnsS1daA
p1333
aVvZI2m3TMxTR1Y5vsaAJt7g
p1334
aVYvCjM87D4nZvAdaOGSz/Vw
p1335
aVyZvHChIvC4Q9fAgv7YXtDw
p1336
aVfno1/V7hBuuMKybkCHM9hA
p1337
aVt1LXSWg8uzu5VE6tJzzwXA
p1338
aVnXQQeI5HR0M3N+RFjzHFAQ
p1339
aV4FmaYBWpDkGFsV7/kT4SuA
p1340
aV/vWzwrlbykwemKDJ7f/Snw
p1341
aV3FC3es3/rsncu9V0Ygk/KA
p1342
aVtoQgfW2o61mjGGnXKJyh4A
p1343
aVMmVisPaf4zIlEFHI4x5/hQ
p1344
aVgvyAjcuu4ttT2WyoYPI55w
p1345
aV6ULoD2sqAUGgBn9Nv5Qr9g
p1346
aVYZYx+KWNp05yUfrB4o2Kvg
p1347
aV9SWcubrlGw0fvziCvkGR7A
p1348
aVhkqnfjgyGbtclyxzU07XDA
p1349
aVbv2fVM7cOXTjyEMQ1qGB4w
p1350
aVqaZBRWdhbLlfZL77jKOtwA
p1351
aVmhnSekpso4YgMqNR/DfkRA
p1352
aV2ePSN+HLDWDaDyFe0b2fYg
p1353
aVqbxlCjQj938MTfJy7h+DYQ
p1354
aVWKXC+ArqJjrBdyyzgqWVsA
p1355
aVp1CEZkkt7PFRwgQd54FaeQ
p1356
aV3WA/i4PsxJylHPXz2xS74w
p1357
aVEU6Un9C30MsumkKzHpIScg
p1358
aV2Ap7hPS/Wp3cUURi5ogxqg
p1359
aV+xn2qGkPmvzsSMtNTMRCYQ
p1360
aVzsqUbz0C+eENgNEvntC52w
p1361
aV8pVZ4zfkxkNylk00c3iWlg
p1362
aVaAcVOmjhr7bizEb9xb/jlQ
p1363
aVJTO6EccIq+pp0M3XS8WBng
p1364
aVW3Rd8y8AT5GJilIzbJUgww
p1365
aVJWnQxO7IhQhbwFc/A9mIFA
p1366
aV1x/WFGRUBEQjnb4L85tjPQ
p1367
aV+c3Lkc2/Q1I5KtZLoEZh5g
p1368
aV14RgsVHDU+LxCVnhlB/4OA
p1369
aVN3K6TJo0LcWo7ovUgPQ0qg
p1370
aV8xbvooGB8gB9vDH518IlTg
p1371
aV72vlNslPH3EfM+Raqs03Gw
p1372
aVg3FOZWGU5lUsC03yQReuyA
p1373
aVedNUh1rfMWj06zLQCEGoow
p1374
aV/ngm3tTqSUmd6Mi2o8RTMQ
p1375
aVWThN4qX7QiTaQxERH7vXAw
p1376
aVBNfuNGcvSSiP8CMpcpMNRQ
p1377
aVsADkVzXEP1VrF7kS0oVZxg
p1378
aV4HYMCtm2AATFDbEP455l4g
p1379
aVr0LG97zfrqSu1Ngc8ZLKVA
p1380
aVtRKv6CwcF75avKAbqkj6wQ
p1381
aV4OGxsRaSKaRohJF/ivmFQQ
p1382
aVagUEzwf5h9A9RA2/yhownA
p1383
aVI7GbqBIyL9iBI1S0u+moPg
p1384
aVe/cWIipgpo6QBYBwyQGB/w
p1385
aVpLi8JNSyxD6Q27n025Bf5g
p1386
aVaCw3Pl+neqfM+C2zjiZ9dg
p1387
aVLLB/hRLGVCIcM7LVdTJJTQ
p1388
aVnFzFcEmurPQ4XXHPLUsa3A
p1389
aVTBVMVDwMew+fKw/Esnrk6Q
p1390
aVzvXg6DFNPr07QYHeT4YWeA
p1391
aVKUQRNZFTLwVfVwrriacamw
p1392
aVf98UPuLWhw72gSBpDsVi7Q
p1393
aV73G4MNwEQ8uk867rzvU9ZQ
p1394
aVIV4lt1so/VFJfHsIY+1U4g
p1395
aVDkWRW5c+y44NWqhXlfqRNA
p1396
aVkAI/SIs9ZnilgvgyaaEvJQ
p1397
aV17uV/V5RZq7H9/Qx7OV+IA
p1398
aV45Ja+raHYIIixGWkOWawPw
p1399
aV8hjP1xW9yDn8RRz0KzAEPw
p1400
aVGTj4tFoM3TiwCqvtNMGjqw
p1401
aVrJ8LrS/6CBtiq2oBv9yZOw
p1402
aV+221eAz81qH0YDnp+H/p1w
p1403
aV8qN/9mwppvYZ7KaDmbEhiA
p1404
aVdBLTHcQuR1tYRK7bP4TC/Q
p1405
aVqheLW6Yxh2Y7M5qZTRwk8g
p1406
aVhOjD1WuM1wg+msMX6Dfx3Q
p1407
aVqsU0LiCn8AlwN1ueu7ziKg
p1408
aVapwtf712+TDxNgtC0Ix2Iw
p1409
aV2O5jGDRPlMD0ku/xp/8ADQ
p1410
aVarrhJBpX5+1wZC0mSrIBZg
p1411
aVCV1y3yfr4w6z+91fDG9g3w
p1412
aV1b84VBN1xftLtjOgGMOFKQ
p1413
aVnBhdfp2rTKJQ857hLWHPJw
p1414
aVnstUS7JVxtRI4rEfziQnRw
p1415
aVUk0XtrDbZYfrt3f4UxOing
p1416
aVy8/He3/cpYX7fNHRVM+z3g
p1417
aVpRt5znfufd5EVoZ5rmgcEw
p1418
aVrhMqjAx2tAO3N5h/QGDRAA
p1419
aVntYIe6Vs/uP/MqxKnHaJ3A
p1420
aVZViMDXeqZx8NK+6BxI2V4Q
p1421
aVM8cd/JuVRSCwMsl2fylmEQ
p1422
aVlNuFg/8RpLmPHx9JGQwswA
p1423
aVl2rhMOnTbCiVv6YvwSDkKQ
p1424
aVYw0HBPRbkNBP4MGer+QO7w
p1425
aVsYDJeGwxFBmIt0Tefs93gA
p1426
aV0wg1J/Z1eUUhO9kN7MT2zw
p1427
aVU1Xt6kWuFlHETiCzdIzLbA
p1428
aVVHeGJzB0SceMzjQvwJ3HDg
p1429
aVM2sTWrJ0xRfqoQGH/pxMBg
p1430
aVcrPrnOP0Qvh5A3bf/yVczg
p1431
aVTa7D1J+ddI3ANP7Ek7wE8Q
p1432
aVYh1Aadv2ZHmLCFyHQW8Pfw
p1433
aVgVZUur7MFRB3yMcCZUG/vg
p1434
aVqipQVjshveMebybzqA0y7g
p1435
aVKSyx4LFd6c8SneAvOH+nxA
p1436
aVqY3Kr8vRodm4V9dpZHl9aA
p1437
aVmworKihchrH0nzohZW+JgQ
p1438
aVYMXX5oIXWHToQU8mvTVMzg
p1439
aVf/7DWa0KV3DsvW9GYn8gjg
p1440
aVrxARX+/Kxz0vGhjZPqoJCA
p1441
aVPziQVLdNQ222C/MX9otd0w
p1442
aVDl4vIFMFgPwXCisZWpmbWQ
p1443
aVxj5la8/IcjdruQNYHs2FUQ
p1444
aVCyjfPrxmQPv6ETE6BcJ2bA
p1445
aV9kkaxrXXKVSVHOzUip4RIQ
p1446
aV8oPnrgHySMVvNJetog0SUw
p1447
aVHc/Dbx9mnMmb8oH05S+/Pw
p1448
aVPJKtmWDcOi6+SvwZaPz4pw
p1449
aViiZwyGkuKmo3uwxjNnu1ng
p1450
aV9+D3Ogcs9sGbK9KA/b+7WQ
p1451
aVe7Pkghwr+j2h5mo3eau9TQ
p1452
aVftrw5Qd0mG4u9YASKZi+kg
p1453
aV1LjeqPHqLjFmJKH93lDuLQ
p1454
aV9OBlgWaeNekQ9h4Nybo+mA
p1455
aVHi2gx5eX5yuS0a4qOcap/w
p1456
aV28RDEdh2NiPcstWgkUOeeA
p1457
aVP/oDybrR7McOBVd6csLa3w
p1458
aVsBXfprmv8jzFvSadT9vl9A
p1459
aVTQj1cTOpb4KIkXzXC1LTBQ
p1460
aVw2bF7G9JKNM8nw9+zVMkEw
p1461
aVYvxXmk6iF7Jxb0w+e4S/7Q
p1462
aVjNTYyhgCDscEneLRUl3X1g
p1463
aVhFCQGcISsOXOCWAkal++dg
p1464
aVU1n8kw8xoFvQARnsT5VrVQ
p1465
aVER8HnOlYboS4GuI7aNvUCw
p1466
aVwbrPkZWW3Nr5PsRyEM4JLQ
p1467
aVws9gW+v334bn4DYYGHawNg
p1468
aVAcd3T58vNojvxt5FPy7D0g
p1469
aVV1tBWCstw/IRehRmisMDJg
p1470
aVC0/h71xpHcR+tu8I433h9A
p1471
aVluVKBkYmg61po1suRru5mA
p1472
aVqJcbs5yngm7JO5JMEx3JrA
p1473
aVgpqQVM1oGxH2fvMRwuMnMA
p1474
aVZPypEydfoIfjdUMoZIOLIw
p1475
aVzAjafvy1SVg5j7wnV2QXOA
p1476
aVKb9T8ugiQgBmAFF+N7y3LA
p1477
aVARNQCKcAkY9D9p/0mUWYVA
p1478
aV45j3veFgdrPbXCHgbRTQkg
p1479
aVXY9JJDyTUn1mLd7LPbvX2Q
p1480
aVgTrt8/fv2GWXuYPdvTDxig
p1481
aVvIYyoAj4NhjSY397hJuzag
p1482
aVwAhPrldi6jU9EhBUlWW2Dg
p1483
aV7YcKAcEz/7jwNIkiNGsK7g
p1484
aVR8vNhMjVVw0HZxIcLaD71Q
p1485
aVsPNcLUkpw82mXg/3u+LeFw
p1486
aVzGEt9tNr4J8BqzxPC4qWsw
p1487
aVn2k/6pqQYehk9zoBFXrQcw
p1488
aVaqL9feKTf7lTKIkkTR0zrw
p1489
aVc1AmFg7qGGvNEE1QTpIuCw
p1490
aVtlTBdzwUc04Zx/BAPe5EMg
p1491
aVdZJxAc3d13yu/9ujYxAx+w
p1492
aVTw2hiReVpB+h+Q/D2VU5lA
p1493
aVD6/tICDo3kizTXZ9UDGfEA
p1494
aVkI+EK86AhqHrmnUWA7zO2g
p1495
aVpJl9CeIXO1OctnZxkjUyXg
p1496
aVCn/LPDv92mPigA9SE3LjPw
p1497
aV/0pvffAoHSoK1WId7Mk+cA
p1498
aVLaExbzAgGJDH264Vvqz9Ow
p1499
aVw6qRl6TZmQuJka9XP2muNQ
p1500
aVyDqoMDrdDi/sijzDt5Zxzw
p1501
aVv3058XOiT3Nq8MCAUaSKGA
p1502
aVF0UnORBe6Fcu4N4AUxmg7g
p1503
aVGr6/EowacqDCdoi8JCCf0g
p1504
aVy8b1YXynfSahzShyYlD1bw
p1505
aV9SW7FzAfs6dfaZfjg2gcPw
p1506
aV7k5UVoty3rZ6I496mcebww
p1507
aVo9i38geMK/87E3pdo/oKcA
p1508
aVFPGtBU0QoPcY48gCRLpx2w
p1509
aV3lYnld/ekg+XulOWFWQWyQ
p1510
aVLtOq4jY6rl2/ZRDcVYSFhQ
p1511
aVd+9fSW08K6ZvZL3O9LCXwg
p1512
aVU/TdNyiwwjXj7C25FX6pZw
p1513
aVt16BdnYZ17MDFA8DXypmrw
p1514
aVfpajcPGPc4fbg66JyIp6fw
p1515
aVcyvhMCSS2GRL9JKR2muf1g
p1516
aVDCNANRV9DLBEEL4Dep4npg
p1517
aVeAIuc3a0kbyFZ6r0TYjlAQ
p1518
aVIaZWHWK6kf7TKwFP2zL3UQ
p1519
aVBMyng2o6pagQIgRpmiCQMQ
p1520
aVpVYjNrUXPY6bNp3mD3+4MA
p1521
aVAI/oYPgYhOcAXJbj4bvIag
p1522
aV7W6eDNGSHSPa5Sb7zj7bLg
p1523
aVDiUzibB1Ks48jpE3+YI/gg
p1524
aVUk6l8xouOe3fl/e2imKQSA
p1525
aVT2Y2AuJwSBvEYdoHMU4m1A
p1526
aVzydUjo8AhaCaJR247d0iDg
p1527
aV3Fwf7abd9ygv6ApaGC9xfg
p1528
aVJZ4M44NaN08UbLs8ISclaA
p1529
aV/ykk57T3rYonjCN3abP8yA
p1530
aVW7cgtfzLrSwNRGtXX3ZJew
p1531
aVazo0641OAt+YLVuzAMjPKg
p1532
aVzri5IjakoMM+KAN5r/vOkg
p1533
aVzsjvTpDw4+wrBe9JgDMYCA
p1534
aVGUxuIilV1hpyiiD3W74Pvw
p1535
aVx2h96slcPEuNeb4Lrylp0g
p1536
aVBdB9N65QNCvVdp4jz2MT5w
p1537
aVPolx1Thbeh7XosADuim+tg
p1538
aVDJCu6LhCtgwC0wyhUL5o7Q
p1539
aVnwMRDEa/dlih+mKwEdVc/g
p1540
aVk/HstNROzxb0aTatzAHk9A
p1541
aVPlUNwpktWubhMZcwWIJGbw
p1542
aVj2eKKPcOgHrZ0KTffeRefg
p1543
aVtdifIoJYnTUq7aKUbSaFQg
p1544
aVjE3elLlgJZKpuchJ1Z2Juw
p1545
aVJvPibnUybkjpi8DuvCNDRA
p1546
aV8VI1z+xu47t294PvWbVV3Q
p1547
aVznL6Q5o2ZrD8Nc1FMG8P8A
p1548
aVXxIljT5T1EivJvAd+BIpOw
p1549
aVXEDjAkgCVejbXt4QA6cvGw
p1550
aVe3JhYmONYSTj/dOWD6DUug
p1551
aVZtVOwOEpELyrcMweIgUzVA
p1552
aVxkrIA967Tvtzw0bBxecyMA
p1553
aVFISj+J8w89524hVp/YI3gw
p1554
aVt4ZhcAzKhDcowLFqxlZ64Q
p1555
aVfUu+pO+kHTTftxNYM3p/5w
p1556
aV97+80eRFWC8qnTMQRW1LRg
p1557
aVBFlhqlxBhuFDwqhNoiD8Tg
p1558
aVFiWiFEOWypWy9pDFCbfM6A
p1559
aVOLsx8xHN2Muv99rpPNOQWw
p1560
aVSHDYatkODd0S2IdkfkGYtQ
p1561
aVkW+DDLk0XL5p32CL9nTZrA
p1562
aVgBc2zGTxK1iQHwr3yds/Fg
p1563
aVsu3a4chvXrzVGXH7MeAyTw
p1564
aVHKhkU6fhMX2KTJOZu5oOHw
p1565
aVblh1RpEo1qMEtCb3hBwpPw
p1566
aVAzrf5TBy22r507pWFoW0BQ
p1567
aViHhGtTRVbw3os0IgridLOQ
p1568
aVO7ZSGNlHhKktOJiSWGAVPg
p1569
aVokno4wJFZ1osEv0myJvHVg
p1570
aVUIsdr5ZFY8Ng1irIQd6dYw
p1571
aVHKoqd+Tnxih6zziKrkIe3g
p1572
aVpTnhJ4n7IR57cDvKzJi01Q
p1573
aV3wT3m+GDGtVWU1KR2MWJ1Q
p1574
aVe0GgEmsETUluiZm5tYqF1g
p1575
aVgft2zrqIujmb93KVbVPUqw
p1576
aViKhRIZRbsCahjN7cY81CCg
p1577
aVpFg331YUgUYghjhZPIezmw
p1578
aVWAtrsFD29F4l6sdesXetEw
p1579
aVsW8yW6daIFuArqv24hW4og
p1580
aVjy4GmGoetUN7Z/wRKRt2ug
p1581
aV/PTadiLAnEOkLea7qOsFrw
p1582
aVVZyVmYiY78FQtCJ44OJ3Bw
p1583
aVT4is1av/JuyN481QzWxNUQ
p1584
aVAE3COFoRF0W9DJ5jTxqp0A
p1585
aVKHo5FdTzZaxmAktwXIwM7A
p1586
aVFqa9UTOFvtPZnDOapd866g
p1587
aVc9UUig3ZnYomOsvFw+SG2g
p1588
aVdkQIHtchksJVN0aJonsnfQ
p1589
aVL0yjp1s7qAMjJqjsl2/HLg
p1590
aVdcWszu5Y13+G/ApUD7OAOg
p1591
aVl1IrcQeJXoqOqM97hyy22w
p1592
aVEIgU/uE+SKVYZ9t87or49A
p1593
aVULMeEa9RGpv7e5xQU2CTjw
p1594
aV5sVU9sVsm0SqvymhSSPH0w
p1595
aVG9U/rGiy3Se9DhtA2IAEog
p1596
aVorqx4gloqM3aqX0zHpPl5A
p1597
aVlLN0tOed3KShuLarXedniw
p1598
aV5eCeGqdKVPK1O/wjmYrxVA
p1599
aVClMaS/eHpw6tTk/c/JDKzA
p1600
aVlQW9r2DSsejA2i5jiSpKtQ
p1601
aVEs3Q1yVLeSTWw/c4W0v1iA
p1602
aVvOTSwlBCXai3eAx8ISa2SA
p1603
aVtPTQ09fx7kuIB82gUMsUzA
p1604
aVf1j2M1eHq+UCuvozWahuGw
p1605
aVFbe+akG8erWNFnzMqgX/Aw
p1606
aVpOqG2GR3/D+DtdUaQXx7mg
p1607
aVCBAMMNOwZOw+JhDL/PsYqQ
p1608
aVyNtpGM2nULdZhxcUOzgxKw
p1609
aVq+Mw8Gz7vq1RVYMQDmIhOA
p1610
aVx9QI5RN9HDt8JYUK7zx2lA
p1611
aVZe0fYj5Xd/elvaX7CgBeSA
p1612
aVrGzA7f+HWKQYrkwOmyLU4g
p1613
aVDFKDVxwA14x0Ag1TTN8hPA
p1614
aVGZbL2SJrjPw/6mFqKhsO8g
p1615
aVWuYMXeCwriqCxIlmo9nGGw
p1616
aVdwm7OdwW0fVud6phTjHqtw
p1617
aVMvG5k7FnAo2jGIRdCKokNQ
p1618
aVMCR+Qt/tX0fXCgu1x0bgsw
p1619
aV8MMrQmB7dXWMNgb5Zz4Zeg
p1620
aVKEcu/hu69qmuVGtWbXcCSA
p1621
aVHRnLQbCaUbcL03DVePnvew
p1622
aV5qPbYVBpgY3f89t8Nc026Q
p1623
aV0UVHhVohrynoZJzyKLZGcg
p1624
aVf6l5r1VnCK097THl1YPLMA
p1625
aVlAHqpnHVfRyBVS7VgeFFBw
p1626
aV53OpnyylQB+RiFuPaXfH7g
p1627
aVIGMjHpNhDBMheRBxDi2rgA
p1628
aV942UhR+uWz9dG24yGokAug
p1629
aVvvxwdofRcpfZE7IxaRLdew
p1630
aVM0vyZd5npP4t5I+ttAr+MQ
p1631
aVOnucKxj0C5gnJk/NbZfcMw
p1632
aVW3UJ4En9IQgFCoHP7s0+AQ
p1633
aVNVrqATy09HNL/T1hW5V5sQ
p1634
aVgl3bDNDI87xeZPWGzRGotw
p1635
aVNwoGdX5ICV8bjBisSpdmFQ
p1636
aV5DaH7GokSoGwN9/zB7YW8Q
p1637
aVT+9VvFB4lqbzrZnLFBVepg
p1638
aVkLRAF3g/mz1VcTa7Up+60A
p1639
aVsY8Ds1yTCq50GHaEBIKUBw
p1640
aVcPbdvvY6N+rwVo/Ss/PWaQ
p1641
aVXW2qUyYdpgKNV3Uxarz8Gg
p1642
aVXbA5viRhuIyz8hP5d4oNJw
p1643
aVm4R7TuyhfWU4zm7h+sOvzQ
p1644
aVU/7Uwz2JJGiE+jVo1Vbk1A
p1645
aVKCf43qWLtqEyqMVF/+pirg
p1646
aVq+A5R/CGNurazDjwmh5bcA
p1647
aVxf3VY8LIMvcaFAd9Q273AA
p1648
aVEL56pDqJIH50UlBT0W57lw
p1649
aVExmFu1Y4f+G5LtzZAw2hIg
p1650
aV9nTnYvcKS2xfTDcH4vc3OA
p1651
aVI6tDC8XcBhF7PGynupo3yw
p1652
aVwjAHhXRJQJvcZCPXAvJGfg
p1653
aVN2yoKn8LBJ/tszjmMAFCnQ
p1654
aV8kbl1oXUxjtAOpRR5b+f0g
p1655
aVSFb/0rOBhrVTGaOIB45uaw
p1656
aVGTBwj5wCpWZnXL1VV66hAA
p1657
aVCAVyLLc4WKJXdbYkl9C0tw
p1658
aVX4+MF2aSvI7X5PfoA+7Q3Q
p1659
aVPuAPEFUYQDx6aWbmC72HyA
p1660
aVouWjRut3Ij74oLsnIAIVpA
p1661
aV/XCBsXbKeIoiJeUuSx71gw
p1662
aVnI74AJs6WlmajtBMuYI/yw
p1663
aVDn0eeW2fJ6EMf2FfIR8oZQ
p1664
aVWaeOOXVPAo56QzXXVPJQtA
p1665
aVjEEcjDQTAk2xIrtG2KnQ9A
p1666
aVK/pI4HP1GyT0BTJDSbbrUg
p1667
aVHq4TdX0TO80dQC04ce5y/w
p1668
aVqb6FcHkq77+Z9RkWsOh20w
p1669
aVFgJiBgBjn7IULAvhXyX99w
p1670
aVSPxZYrqY0DbuDfyF+pRVgw
p1671
aV81VvSVOl8RKUO206L1JhYg
p1672
aVHBMehTXF4dRLWqZ01IB23g
p1673
aV2ggG/MsNHyZvUBGfQlT/bw
p1674
aVy8kGzcEOfOATpUBt9/Thfw
p1675
aVX6UubwkAy0LPe4tN9se9fg
p1676
aVWKe0tk3K/KUW5VepXwXUzA
p1677
aVDv7XUHwpEMbeRC+dVKY7LA
p1678
aV885LXMD+qICcd15BFMNvEg
p1679
aVIWs4cl/tp1iugeop0SUstA
p1680
aVWCIWKpF50HcbyVAIRD2CLg
p1681
aVD3ztouJ85Kk18SjWpmG1dg
p1682
aVN55QloW15BN7Uegxlgl5Pg
p1683
aV7zNJoj2jcQ1etMgnzh8clw
p1684
aVLVm0x20fGK8i7pJSMjxNCg
p1685
aVY4x+Rq9Il8ERi8fqD4O9bw
p1686
aV9BfTO6HWlzwtnrFA2s9Fjw
p1687
aVHxnBfLaxkGcgM8zwOdLfXA
p1688
aVI9+Dvcl83M4IpiqUOMvMKA
p1689
aVjtbC5zeX7M9F47AlXtg+8g
p1690
aVMe4TaTSnecPahsPT6hIAvg
p1691
aVesa56DSM7gyjf7ztmsRpyw
p1692
aVJ5nQdqU52V1bw4+EPh55VA
p1693
aV9eeo8bAvmfuI28+LP3ulGQ
p1694
aVRAnQGOtmMCzQ1R5pqe/7qA
p1695
aVPZBvkAxPbvpwar3CAXXWwA
p1696
aV3h99nucPQFEECMWUH2Csgg
p1697
aVT+dSPDsaDVUWeB/T3ujZGQ
p1698
aVmi1Y7F7vzis4jsIENFKmeA
p1699
aVwfd/DYs5Vtx2DTsTahlW3g
p1700
aVPs7T8iBRdC/pJ9kNBNRtRQ
p1701
aVqQeAesVXxw8fQMWWb3cxqw
p1702
aVr2EBb8DErbm6aCRcSYHeeQ
p1703
aVW64q2sTSM9RV234+J1pSmQ
p1704
aVLFsU7E5uS/NxLKfvL96eMA
p1705
aV9kGpt+XUpavowCzDUv23cw
p1706
aVAOPECAwTwM3GIWNJ2G6A4w
p1707
aVJsxbH/TT5NgAWrPjW1zsTQ
p1708
aVz1ObPbkYAs11Wv19++vyuA
p1709
aVGByl4FT0lnUWrKys/aiDzQ
p1710
aVtFMwN16MreUvZ3X7BbSPXQ
p1711
aVh8scA63QoKkfO6uVo4VRGQ
p1712
aVogQk8D/dipE1ryPng+wfUw
p1713
aVBOz7+m3cKDRs5oaEAn9+ug
p1714
aVdB0TEoLE6N26QsB3dUjVrQ
p1715
aVvPt/FREG8al/t8rbFJUQMg
p1716
aVW2FqpoEGO1u0i8u7vBlwhw
p1717
aV+GNhGzXMJ4rmucH1zbSxJQ
p1718
aVH279PJYaEqYoEg+kHRn4Qg
p1719
aVw/npTJkpHGI1OLrX0O7Wlg
p1720
aV+TnhU9zxk7SG5NLvRJ4xkg
p1721
aVdfKsJG+Vwv6gOci+4ZoMhw
p1722
aVnc47rbB321zZLwE59zIP5g
p1723
aVUcPKZuvS3n7n9qqF/kp8+g
p1724
aVNpuPSY35Rd0fxubhgcji7g
p1725
aVbHHJFyoIiKGU7g5BS3cE1w
p1726
aVTj97TrW2ixxsC+5RcuMNow
p1727
aV88AJcupnQ2HnIEJDFV5vvw
p1728
aV6hQTtrXfE4VfslJbKhX6ug
p1729
aVakavDdx7wXQtjgRvxGjjtw
p1730
aVVdO6TWpg8yhvgRR2PIGvZw
p1731
aVL7uy4NO2xFSWBOVqEJjDjQ
p1732
aV3bMP4uymc918SOAD5mV26g
p1733
aVUPpo2u7DhN+8sv0s5nHqOQ
p1734
aVRw0jsJkjUZcpxUjnGxMhAw
p1735
aV938wtPZwtSz6jMw29igHyw
p1736
aV7AtUwCEQUsRTo/OEP/uCEg
p1737
aVvXyjg0yUDTshAxd3U57+7A
p1738
aVeRHu18Iz9Fw5JYcsis04IA
p1739
aVRLu8XMq3LxiTekzCsCLL1g
p1740
aVqD+K1ilPXSvQWMArSeBRVA
p1741
aVazVb0Z29xOg2tTUXnMLgUQ
p1742
aVVHoWdRrM+H28q4Nzk7tZpA
p1743
aVUsbuKP84P1XadBjgdRTJXQ
p1744
aVfKD75Pkyfb6ck57FCWsG2w
p1745
aVy1bxIcEJBqsirlR1BuMbKg
p1746
aV0nlK4bkWiM6nj69CXRGDkw
p1747
aVHpStrBzg0lxKEWcDvDIvvQ
p1748
aVlOKzeU1Z2OUva/1H5ajgNQ
p1749
aVipohEVpSkXCb4QWQo/ijAA
p1750
aV6VfuOB9RC+p5fwQBbWRdqw
p1751
aVVdig2InNrM6XWk5dsKGMgQ
p1752
aVD3d4mJkxbj/XxBgTExfXNQ
p1753
aVIeFTuLvJTtzohWGUQbpWKA
p1754
aVMPcOsYccb6k9nFNLw+f+/A
p1755
aVTKHuSBPJXjkm2MlthZvNvw
p1756
aVHFBvF81hJ/EHHnQTI3hcGw
p1757
aVhWpAX3oYycTjMwdewErrgg
p1758
aVmNIwwJ5JJ3GJk9QH5A6JLw
p1759
aV21UiZktGfuwtAwuNSa4lAA
p1760
aVgYK5cQWcSHLiC9ObnKEQiw
p1761
aVcHnrnZQSACTODqGaM66Cog
p1762
aVFgon1f+70BDKzbzu9JRm5A
p1763
aVsXeZgUUYmBlYKs/NjVvmBw
p1764
aVku3o1Q0uYPl5M5blCtKnww
p1765
aVtn7yb2sVTykJrfzBjLHXlg
p1766
aVl87ADJp+Wbg3SObqxdMG0w
p1767
aVJLYLBxPQhBQ4yp+6+gujzQ
p1768
aVJJnyL2vrvzAOyNLMMb6gHw
p1769
aVQsJmBPQYQV4X0uqiQIls1A
p1770
aVh4Gz5MIJZJB1VCjOOq+m/Q
p1771
aVreEStS4sWefoXSn3xgsddQ
p1772
aVzHwyi4WMpnM2KEXKtez5kw
p1773
aVb+24sPZeazISp2JxBppuOw
p1774
aVzL3evRop9Dv5k/GzQkPYxw
p1775
aVPP3oeJ0XMGzsYIO3EK7+1Q
p1776
aVAWdTXCuFvV8liWTbAsD0XA
p1777
aVibKCmMcItFXxfPU1InlP5Q
p1778
aVNpSO4KL9HmIiT/dHXkbYig
p1779
aV+ARdffcinN0AeqXdOxgTXA
p1780
aV/mRZIsbcT+h3RiM+HywyUA
p1781
aVDGkcsPS1abV1Gsz4W2C6DQ
p1782
aVeAG5xqoBdCQQl0iILAZ5dg
p1783
aVT2eHjfapYuv1snoSKRNupQ
p1784
aV5YGlSTOFNxHjqnaeIpyebQ
p1785
aVAlA06QgBAcbCcCNS9K8+iA
p1786
aVOY//KI0cpSHt/hgIV3+O1w
p1787
aV1KbU9bi+QfP+DGDExSJSKA
p1788
aVYhS5glDiya8bJ5PLITbRNQ
p1789
aV32aIU4QGjle1i+IPs9iqfg
p1790
aVgFp/4luuTBRqMOqlzzt6og
p1791
aVVL57bP1TBBWFyVy9drWwaQ
p1792
aVrGGrZseHrqBF3q3TmB+Dmg
p1793
aVLaCM7IAV/tEzxfB8d0XjYA
p1794
aVYCTFSOomKGNBLLbz4GesNg
p1795
aV0sjRWTr1h0NGNxsRbqeGew
p1796
aVjOQAf7oxN7s9pGdw7ZKSEw
p1797
aVQZi75q/8wQWuV4p+QHPNPw
p1798
aVWV4E2sVttvFaL/cLiIfbqQ
p1799
aVaoZGwQq+uColRnU0RNRqAg
p1800
aVehVYMbv7Yq38p/Bkc/dfCw
p1801
aV9t5Uw0V15LQ7inYd/a+V1w
p1802
aVLYE5LRLXdIa0MAwVDHJ/TA
p1803
aVbLuPDq3DiyM1HxtUakxO4w
p1804
aVYw1/3KCG5LlHhXe/h6YVQA
p1805
aVr+4C2S1N7lo3T2ToIYYBqQ
p1806
aVqYfpkgz87un1sziGUnDYqw
p1807
aVoTUX79d6hsR4QMp3r5h5ew
p1808
aV2QNmlpavdhO7YYSXmr4+7w
p1809
aVD+igfgRCwzvLaGT9R7zirw
p1810
aVIIcFNZpz5C7vvaJKmp1sdw
p1811
aVQE0YG9pxp6eb6V/ONosK/A
p1812
aVv90eAr7nLyhj8sbduoXb+Q
p1813
aVp72NOLOmPd8ydaXaUVPn/g
p1814
aVdLq05HK4OoM9Dq1VOjOjGQ
p1815
aVbzxUywbjPVPoVWx7dqxqjQ
p1816
aVv7dmP3GE8xOeNyPikNk3pA
p1817
aVVvKImo8GQnNSfNtFjCgseQ
p1818
aVFH7W2toJGxin+dmmRlupfg
p1819
aVmtNqMqLrT0Pv1p6WqKAcwg
p1820
aVjektQf64CPn34dgcLuTjUw
p1821
aV+iorpo1qVKCFCfWsRV/7YA
p1822
aVdPft7g2lbDhkes7WOvCpKA
p1823
aVv3srsJfilaRbYP92onopBA
p1824
aVf5r3W/Xt7Xb4mPPhQt4mUg
p1825
aVRoUx2iBj6MDH/DJbETBgdA
p1826
aVtJUP9Zdo+X2SsEojT+CNTw
p1827
aV5I4Ntu9Mak1M2hb6CgdvQA
p1828
aVfaK+jzhXNdS7ePiqopQ1Nw
p1829
aVDdKC+4PHHpr+BR9TjT+9ng
p1830
aV9cUylhxUMiF805+ZufmJyA
p1831
aVIL2t3shQJ+y7DnF+GQ3hlA
p1832
aVqA85SgVC7qMC5Al0LHaciA
p1833
aVWYNf9/pJKj4KG8Z28Xnadw
p1834
aV+X7clqOwgKLL6tyuOmR1xA
p1835
aVyRCsk8TI2PAKL9gB4LG+/A
p1836
aVPvToOQed3UDVqZd/l483RA
p1837
aVYODrbXThLYammj5zaTCCeg
p1838
aVb62cbB4CoZxGi1bBZ4o8tQ
p1839
aV6Sjn0t45HPc5HIJjJOztxA
p1840
aVlOKkle8LDdJoCkV0V7aIAQ
p1841
aV4tUlHsREd6pDbxSBez2qvw
p1842
aVIqVJIYKN9Uh+9gy22hspUQ
p1843
aVON1itzrD9eoJ1/bN9T6QWw
p1844
aVvEWJj2k5CTKqrAQ2BsHP6A
p1845
aVPvSgJCw1VPomTLuuU4cBvg
p1846
aVYcoFo/0MEMlrYcil2Xk7AA
p1847
aVOXlJezlsiSd+Y0RRY56n5w
p1848
aVnzlrarEC1s42XE7j5uSpgA
p1849
aVu8v7DsZOiI6E1jjolyNNgA
p1850
aVsUghZrWq24+eWLk0/PwTBA
p1851
aV7dWbXcMoHgqky83CzyBNfQ
p1852
aVVV62x+ao9C7Sau/1B2vOgQ
p1853
aVpB59qxdGXLQwRRbaAWKX6w
p1854
aVsNN6FZnkfz9MzvKOlIaLSA
p1855
aVSI1b6vtYpFNqlARB8nDfwg
p1856
aVyfCXwS1cl9T2vxS+eBNlkw
p1857
aVdQ7NWSUhwW7/7VFwUbHnZg
p1858
aVvGv7Ip8s7DwGyIoo9eVZ7A
p1859
aVS4wJtKvhgTmAVk3a0dsCcA
p1860
aVmaK10IUWe+kuaVm7AGY5Mw
p1861
aVj5/HoiuGooTzcr4CYHO2hw
p1862
aVBkEoLJBipGL0rbw5oXTV2A
p1863
aVyfwBfF8EfIJotjg1jeWAZw
p1864
aVjmK2ATeHSpQhAWaKlU0LUw
p1865
aVrCn9oYPXPNlo6UmAt5UpFg
p1866
aV1TF3Z/vrIfbOvTFusV7gXA
p1867
aV3FDpsr/H3Nb+CGpch9Wuwg
p1868
aVsQkNcDVyYCwQ0JBhOP5Jiw
p1869
aVAHNgYxVAz3L4n4yVQcdPrg
p1870
aVcLkQ6gLHODiR1HgGmxUWJw
p1871
aVrZ8mUqJh4SpD7k0EZqNu/Q
p1872
aVS1DewcjZfRW0nnKfnAkArA
p1873
aV+U7+ECKyV7JPjdEUxOiVZw
p1874
aV7SRjjKEGIqaw2EGx50gtHg
p1875
aVrt4xNtjllrTWuxplDQdt3Q
p1876
aVs9iBWAC4+8K4mf912PX3hQ
p1877
aVV2mxORX1oRM7VU8eDj2+7w
p1878
aVYNAlKaZviTy/Jmk8LfGVIQ
p1879
aVsPTRN5UedsNN1Z66/frjLA
p1880
aVXKFel7EypeK+DHIQ70kQ9g
p1881
aVMaenZgNutakBXo08yS02vQ
p1882
aVgqMWmluoQkzsW9aB3CmTnQ
p1883
aVERbHDPcKk1up/Bf0V7xkOQ
p1884
aVKmykJFhxsOKOKFG9X9Znfw
p1885
aV6JlE4UL7MltnACbxXmpfag
p1886
aVOfY/E/65LfUB0Zc0+FTKKg
p1887
aVlhuqOacFktTP8qkO2C/wQg
p1888
aVBaeZDV0U1bTh192UlOKx6A
p1889
aVyzUQGdl40sA8ISjZWlakaw
p1890
aVrnk1lzgWQHEBXyz37oRoCQ
p1891
aVDvu33b6QdQeWA7mu8JfxNQ
p1892
aV1EmgyFsUgA0NLjH/nbGZmw
p1893
aV9F76thoV75/T2Zh6PDVUQQ
p1894
aV8lHTh8/1o5yBP9EVyFk+hA
p1895
aVQS45t8TmC1sfasZhHIH94A
p1896
aVTsgzvp+yQ7oLs8WxKBT5+g
p1897
aVYzlluj1hHxLZ6pyYHSHpzQ
p1898
aVdF3GNzFyAKvy6ZogGC/qAA
p1899
aV4a8UuSWFF+6d3o4Aof+nPQ
p1900
aVMBlDIYKUQQWbIHROY4DeWw
p1901
aVRvbQLIfsh2Xg3hpedJUPLQ
p1902
aVY/3E9DWY4Q3rJPjZgfIlGw
p1903
aV6omqIOgOBjcO/rtX9AXsnA
p1904
aVhCnC1lWUL3NxYtd7XOlFRw
p1905
aVGwM7fP+TfEpkTn/eumpZww
p1906
aVgIDsJ86/WoWlXxpbKxwlVQ
p1907
aVFPdl3ipiwcN5m0qAlz+Oow
p1908
aViC6NOZ6HTeOPCcIfr/Ym1g
p1909
aV+je7RQfG+or8SlmYwXqx6Q
p1910
aVN6MZ9IdQsG/lPrRJqqEtGA
p1911
aV5dw/YYwArdlozViVFb/Ziw
p1912
aVrCFBAsN7EANWYZsYG9M1LA
p1913
aVzd/dMzsDxvLNk837ypOo/A
p1914
aV5yEpSApzdSpy5I0IYofszQ
p1915
aVIzwPT4h+NOxJTncbpQo5hg
p1916
aViEmg+Y7rIFjHQdeh30vKuA
p1917
aV5qB4lW+EJOMVz9tmIS4+5g
p1918
aV2DspOPhtBYgJwcBsPKWv7Q
p1919
aV444KEhEuDKI9F18DAS4o4g
p1920
aVVGfoa7IgpzSje6vaXYROQw
p1921
aVD/nacE1/nle+mXq/+o5ZGQ
p1922
aV2ZqU9syef+z5IPc3NxjBmQ
p1923
aVCI7I+ZS7z2DixseiuWjhaA
p1924
aVuYNInz+WdooHLcqZmPB0Rg
p1925
aVKzmBkCUPaH/1gVqS2TcjhQ
p1926
aVWB5kCx7fNV/qz/eoxkQlXQ
p1927
aVpmjGQYIde4iwB2LOyQCa1g
p1928
aVPX4KpZmezshM0u2FOVc0cA
p1929
aV754wMlG04Iiv+Ot7rLtZQg
p1930
aVgr7toX3uA6Kwqi6JkEjrYQ
p1931
aVISXuHD3TDvSmP1rMjA7Rjg
p1932
aVfiEf5Ajm8D5YKXvje9eXDg
p1933
aV0mRjMruKiYVfLai0mBv20Q
p1934
aV+297nxmglpiujYXVMCrWrA
p1935
aVVHYx3pLTOv4cOBsEd8GZ8g
p1936
aV7o651P4boRE9SLBrnhBw1g
p1937
aVLpB0XuoBGnuBrRaoQY104g
p1938
aVZRMlKl++JdGDMvmZcOYzXA
p1939
aVqj/Tm6p0wkbJzPvohesyvQ
p1940
aVx04jIpU4TAcu9lMEabF+hQ
p1941
aVL7icgbTseg2DBaYcD7usOA
p1942
aVbSDJwbTmGA4R+u3vEJdXIA
p1943
aV1USyMAUrK51ZyPhzoyCtjg
p1944
aVjM7yDdzcVuT22B+VkCl6Dw
p1945
aVKudvYuFL+Bw8nkX+zV2kMA
p1946
aVl4DlFKAsML5O0gtqyIvoPw
p1947
aV8Ebsmeg4hc3VuwiasMAjLA
p1948
aVUnDplU2wrXzIMpbtvxxu+g
p1949
aVbP0ko4aFeU/Hi77+yueHlA
p1950
aV468IPLRNnM70CzKR7wjiIA
p1951
aVIXOq5skrKrjZ7MpbQ80/Rg
p1952
aVUfZb+osFBTNZZLn/8Ey7qQ
p1953
aVV8unW4GiXuapwTfXlF0VBg
p1954
aVxziuGYHgUXR23wF7/q29PQ
p1955
aVrGOMmhiRPFw1EoWv6FkusQ
p1956
aVuxUXaWYXnJNrXDR0XMWWUg
p1957
aVlXG/gmpSXNVnVWVA2ZpElw
p1958
aVOOFT1s0EAOpnh1FvFRur4g
p1959
aVXaWIZajKtCN/xTiaVNOzng
p1960
aV4ACeekmOHXZ/N+3HQZGnOQ
p1961
aV7yxhLRjIFW73A/r3fegh+A
p1962
aV3dwppwxSo4E3sQ2Kzi7wdw
p1963
aVAhSD1Atv6wYDyUVv69raLA
p1964
aVoEoq6qqbKEjM7/zmjkPEpQ
p1965
aVpXPSPdAT59ljIQ+UNvnNJg
p1966
aV6XJ5Mdgd+csmb4sjI70cNA
p1967
aVAEq7WygMbHRherbEwOl6tw
p1968
aVZELc+kd6avhvjy4JioNs4A
p1969
aV3uAr0iCoFiN7IjoYZ3p8gg
p1970
aVMD8SetdoHHM4BQrGsoNEog
p1971
aV3MMHb9scQvdDdwwYhPUqlg
p1972
aV/dJPK1c1vV0+tSYp66Shgw
p1973
aVHhrbBOuA69on38QkMbGCVA
p1974
aVlanzoSjvW1m86L4B0dIJ/w
p1975
aVD6BgLSVk9yBWhwfFbsFSQg
p1976
aVPWNzsFJTW3qg0xNyqmMreA
p1977
aVyUJre1JsoGcxkZTXdzSXEQ
p1978
aVoX03ouUIO2Dk3pARbGW2Lw
p1979
aVTzMgcS3O5kYo1oD+vJe8Og
p1980
aV5tGVEc4KodZCWXOepJHdSw
p1981
aV7DlSTR9P+MkdslHCCZLO3A
p1982
aVb4KPClWarrCsgyGOa0WtwQ
p1983
aVzsoMLNaqcK/DSClr2bMDvQ
p1984
aVpWBnKnZ+gfC+oiNnbbUghQ
p1985
aVWcKM1uL7E5dJAZMs62jV5g
p1986
aVz3GsKiM64gBCn2yapHr29A
p1987
aVv0xRa48syfsGYTaicQkCug
p1988
aVb05sso/e1/GPgQ8QovX55g
p1989
aVi7evoYNl+mJpcYWoxOBQLQ
p1990
aVNCmtCPghKsWd/LNfKudQwQ
p1991
aVXwgcl68CbQKs4K3MKKbPUA
p1992
aVGCwQ/CLBxQlCpyPbmixWvg
p1993
aVuoG6OlH9wGGmwjDi5im/CA
p1994
aVmdOZvEdD3QrHFHpCZuAA0w
p1995
aVHQg4dAYPUt6c2wXfx8Qp2A
p1996
aVLLlS4UbqlnzaXXa8ZtBcqg
p1997
aV7PRjkGu3IC2FrfkIxGGBjA
p1998
aVtF43pSlEBhZ1kwmgCizsPA
p1999
aVHYz59FUcwFaovx2SlP1p5Q
p2000
aVPLyWTCs2T+xI6uSI6CGQJA
p2001
aV6GWmS5Sv4wH0mZbW3lnBBA
p2002
aVH7HZiZktBjMhb31JA1jPsw
p2003
aVTbKfw5U4BpJv+lsJNU+D7Q
p2004
aVG7V/1ux5yJ7ccbj/YPfhyQ
p2005
aVYLBQiLTT3Ec99ARbJ9AZ+g
p2006
aVM5aadoqvUZ7VuH0GAykDEQ
p2007
aVR4K/kKfjMbfw/ZiEbWoqQg
p2008
aVwFQh37hBehj5rV1KlvDJkw
p2009
aV1iuYhWYmvVP3vyCqrdPytg
p2010
aVitUGTPOPWQu6gSMUZdTMqg
p2011
aV1ILgMx4fFM3eIuG9RNfB7g
p2012
aVkbcKAgMq2iOPfSkrDnSeRw
p2013
aVYEfJFyXGWiNAyQru7YxCAA
p2014
aV+38WdZ4L8J7gkKBgk8Y+aQ
p2015
aV2SsgDUKgFCHGI7Aot4PTFA
p2016
aVUfXaKG9KAAO+i9jNoDiFjg
p2017
aV8VaTJOeZq1ZRPhAaFZ/syw
p2018
aVHcsgzv01Zkg8+sMido3Lyg
p2019
aV+JpGmOWGv+FMobwMzJ8Gaw
p2020
aVVA1eBeZOemHz+IJYHplUyQ
p2021
aVJA4gFlVU5qBH1MEJjEHGLA
p2022
aV2Z8DNyPB0bh2xKSpRuWORA
p2023
aVGQJsPhGmW05Ulx2QyL9++A
p2024
aVvIPoiRULLQ86pas+/y8FIg
p2025
aV2dAG7anrQYpE7d+nQ60+Kw
p2026
aVxLHhSwjrrBLq/fMIWgz7bQ
p2027
aVg2xyk5BnwgnR99JpMdk3Iw
p2028
aVl/OXXna9P0ot6dGbjQ5T6w
p2029
aVOWWMhx+TUHLiyyg9utqH+w
p2030
aVCtP9EvQrc8A7LgtKdf0QPQ
p2031
aVQtBTCrCpkpfSp+tpJivZag
p2032
aV0iznJG9A9+G/Q43USfNL3g
p2033
aVjfUz8egUoFkbI5+/dNCtRQ
p2034
aVBmRVeRiSZ0tOoeVufEhUXw
p2035
aVDptQsOfOn/LpfB+i1RZXyg
p2036
aVOltohbpWZM60cJFvXfoNAQ
p2037
aV0SttfTQ5n3D1Y2BbqL/tNQ
p2038
aVnaxDZfTrFEJT2jLuUaWotA
p2039
aVqDh+pD6l+gWMz38pzi9ryQ
p2040
aV4tIGKxHjRv175UkNqpfSsQ
p2041
aVk32+/eBbwl0WUxceFmyKqg
p2042
aVZyNCCrdbuluYumWXQPGIdg
p2043
aV+TrojUhCFHWemEEz9F1Cfg
p2044
aVEFLXIZl0HAwL9JQD7BgcNQ
p2045
aV/47AhyeP3sr72UnQ6wOj0Q
p2046
aV0HO6jcMs7s1xfVxH8HUXXA
p2047
aVnKqY1U5dZ/z3dGyAA2+YFw
p2048
aVShEhMFvsSeHiRBPuy835Jg
p2049
aVfB5PpoVSnOwc9oNtKiZyjA
p2050
aVG+3SBXsURc8ghwqQJPoMvA
p2051
aVMb9pxeuT40Mra1YNT6sDmg
p2052
aVzMHjm9kewe9sT7snrSFeyA
p2053
aVEen3lj+0f3jxdMHa671q3w
p2054
aVqMbQLRpMvELuaEpEwXhaig
p2055
aVrhgGVcFG2x4mmNKheGK+Xw
p2056
aVF62FlW6xvsmp7CFsg0uFmA
p2057
aVeLufwObpTc4k3Xo2xq5+hw
p2058
aV3UeX8P3O+b9O2stBZeZBiw
p2059
aVo00FNscSOYVIdMHSDrMuFg
p2060
aVd9K+bYkkegOVnvnZ7KHp7Q
p2061
aVxmwutH3Pn3Pyy47Im1ufPw
p2062
aVEcvwNOOUtiyVSFyTnDxtbg
p2063
aVsleb8rHg1vjy2fQ5Pvnz2A
p2064
aVBucGtI3JlCSSfBMqkBl9kQ
p2065
aVXhZaVxzfXQ7gQIar1BIKQQ
p2066
aVllcNpHmc7Tf5mMRNyEyK1A
p2067
aVgq242KlMt2Sy10Q1Uvz90w
p2068
aVyp+174qENmCCycrC6Th64Q
p2069
aV0Y1tTYDB6uqA0AufpIu2PA
p2070
aV/p/KfXuVMfoo33D4/0RDOQ
p2071
aV/P/xm24DBsfRoQ+cZG/aoQ
p2072
aVBWHXOdaGFJG387u2sTwQzg
p2073
aVVZw7+CeuI23ehqgDfOGj9Q
p2074
aVhkZdJyYnIOWTvWtVSDDRaA
p2075
aVG/X2Fy8Zk3pKl5p23JIfMg
p2076
aVGSmoA+N4F0QCcSybOkYQIw
p2077
aVb+hL4GYHwKp71AQZcu2G4Q
p2078
aVmRcfqTkC71wNKyJPjhZqFw
p2079
aVXuYaKi9fN2ycQxo88OCVjg
p2080
aVKZEqoNkG1GW1IYXNt3Rh7g
p2081
aVkfgzYE+pzcrIqeL5C2R0ZA
p2082
aVOpzP3FCMT60nR44noUM9vw
p2083
aVq+ZuRRnNaqqvN9mHmI+Bvg
p2084
aVnqbUFiDHEReG/O3kXD72+g
p2085
aVLlOQN2eNm5cjig25gSDISg
p2086
aVBDNttdD+aVoNQHeCE+YAhA
p2087
aV874n8gBHOgE59aTSAVQj6A
p2088
aV/aDPDsIbp5CTfesZ+AxdQw
p2089
aV4shax3ZZPVa9nQSyI0HOjA
p2090
aVC9qz0X6soU61ODAgif1nLA
p2091
aVe00LMdB8dScOCewC98Gdyg
p2092
aVZvx0PDYwJJGCT6NtfluNrw
p2093
aVoyrRqRCdvIACwD1oh0I9jA
p2094
aV+bT38hfQxmHqKYhNKg9vmQ
p2095
aVCEVdCe+UqAJJJHlJVycrLA
p2096
aVvP0TdcKVK65/EowBGsdHuw
p2097
aV4oe/xDsSfnF1TlGnK4ln3A
p2098
aV/aDQZRvf1zdGaLGO0p5pTA
p2099
aVnsF+ghVBhq48eT0DGS+aPA
p2100
aVUAhco/o0Qfz8huiLMN+WoA
p2101
aVzJA84J4Bykko0bJ+OBuVDg
p2102
aVCFYvzkv/MPzHCmarHPbA6w
p2103
aVpqr5rn3XByblD7WHIyWv3A
p2104
aV7RLBwm0We4Vtx5HwK9vBQg
p2105
aVglEgQP0PfutuZEjU8kkPOw
p2106
aVwshCds0JkK7i+7iAHz4U1Q
p2107
aVyoAQMlEGssCaCGlIzFOdWw
p2108
aV6nvSr/hQwX79QijcPhmuHA
p2109
aVj/X1ai9q7eqgYGFMC5FcNw
p2110
aVUyI4gmvLkXO+IAR9wW9Msw
p2111
aVpcu8kDSSEQR6wC8eeM+Jdw
p2112
aVU/tcZxcXhyse5Mqo53kCuw
p2113
aVCO728jiVuL8DJ4UYPNHq9A
p2114
aVBmDiMhtSaKmT0Koi9p/Asw
p2115
aVwWXLNpUQVFx7eQY1JM1C2g
p2116
aVEP6frzD1jmmChQDJiUGS9w
p2117
aV5Oz3XtlP2Jk37fGrUa7PAQ
p2118
aV0GhuDqCZMfGjJFJ1u0d1lA
p2119
aVWAOeUFhpVvrpitFaMsrOQg
p2120
aVA8cpcnajeNO2onSgOvthOg
p2121
aV5hjZtF02smR5YST6gaq65w
p2122
aVRuXhWN+L/pMWfKTfEksaEQ
p2123
aVPDdd1DZbrFNkauV6DTwcnw
p2124
aVAiiJXMM0CfYl69+Nq3jyfA
p2125
aVPfi/UlZtKL4PM9gFOceolA
p2126
aV4sQN4IVXLwKkEKGDP69xHg
p2127
aVycdoGZYBmUtqa46yjZ8DXg
p2128
aVg0iLBkSRLtmOfpI/57inhg
p2129
aVvYcsJq8sOG8auGK7lhxXMA
p2130
aVwSnXZiIIeiTt6gkgHZrwcw
p2131
aVqEIElPtSg4L2/eEIQw+wjA
p2132
aVqnODufGqMetbheIbsGzKlQ
p2133
aVF/j77YHQFuuvnujYHtGL5Q
p2134
aVZbJrqujJ8SwsumJmdKNuPg
p2135
aVpGDPfzIYpc9QgTtHvONKnw
p2136
aVH9ZeZX6+QzbliXmP/NEGEQ
p2137
aV7OJ6V+vIVYPzy7FrSmezFQ
p2138
aVsmu8djmN95mO2v2fcot5MQ
p2139
aV7VpXEtEOPZ/njsKMEFgpFw
p2140
aVXZgKvQklassK7ggWRTtJpg
p2141
aVSb0F8kJr5GoF+UBU3tX68g
p2142
aVOyPRumkEzeY9TfZZxtGtnw
p2143
aVmkR/9JiCj90ocee7QjW52g
p2144
aV405HTB+meJKGk9ncBT6Y9Q
p2145
aV3d+U049fjpsJ7nHMj731ig
p2146
aVtkn0bXLWKdHYFDP7aFMblQ
p2147
aVYTl1HrDTF18WWtXqWXBsGg
p2148
aVFdlLMC/9UHHnsM6JKxRbow
p2149
aV6vf6yk6FxzcGLosMpx6CaQ
p2150
aVsPTZKYRn3QIbJgxgea9PNg
p2151
aVCjduWyycGh2GakraU40dZQ
p2152
aVYgjZ1P5LbXJIOcPtBfeH7g
p2153
aVDs5UcLoKwypvn39SC38WAA
p2154
aVFzKGCu708zptLYQ68cmp7w
p2155
aVQOaJzScf99nG7bT73VT3jA
p2156
aV52zONlh8CpsuQIJqWM53cw
p2157
aVSj+frELMYvfcumuI8XMK7A
p2158
aVbJ+f7P7UhCndjxFQmAGA3Q
p2159
aV+mVmxUtcf6je/bA9V9EAhQ
p2160
aVF/LNFKzTlWxNetymuahmLA
p2161
aV5ZzmSPrZv9fesMjAf/W+ug
p2162
aVCB77iDWH0JzuPjJa2VwtRQ
p2163
aVqyMaz7jK5wQK7oywQ3idlQ
p2164
aVTxJFvdzsd0uwmNzePEaw5g
p2165
aVxOFAboo3zS2QgN1dMMmvqw
p2166
aVryk1DLETnZ3jPisfZA5VgA
p2167
aV07Gk5axdjbNNaFqUp0tpbw
p2168
aVosVw+J9P/jl0x7HGUGw4NQ
p2169
aV9e04GaHsT+O4HEGlWQ3p/Q
p2170
aVSPj+h+04y8CurAx9JR2HhA
p2171
aVQlTwJd57AhJSli1epJ2SEQ
p2172
aVDA7omSYiJAlgb7cGOy3r0w
p2173
aVCbTSTupy8jiV2pw+bIZiVA
p2174
aV2bnrPlAyp6M24F5BH9Yo1Q
p2175
aVRH13D190hZ/ETo0lf8ouWA
p2176
aV4hMyKzCutzf48nGDeKUdmA
p2177
aVupuFRSnw5eFn7veOG5TnLQ
p2178
aVwLTF02TQAH0qx/F129QlBA
p2179
aVH4FMzqcYq/jwzTUBoXdOzQ
p2180
aVJCpe7BDXF/lzEk5rc/h4vw
p2181
aV3EUrm++3X9wVGi6C7gGkdw
p2182
aVrgOnpLfFy41kcunwSZiZIA
p2183
aVxxAaf/ri8JAcS/9wkJcgsg
p2184
aV1Ttl4gfQ7j6YdYuGyy/DAw
p2185
aV3HkXuSFrEKeOhVA2WuwvoQ
p2186
aV3ukaUtNn1FEy9qsyuwHnRw
p2187
aVsP7r+0WiN6VIt2bTQFzrcw
p2188
aVIbdyhalUZ9ia4lWHHXr2Xw
p2189
aVu3b6nfs2Bb4aXf+qAp6u3Q
p2190
aV5SAhiqREJwStmN9MJV1OUg
p2191
aVC9vcPv+YW3X/5XBmQRg35w
p2192
aVtIPrAA4lWVzYHOZ60UMwBg
p2193
aVBl4e2KXJl6xW17Bbojd8Ag
p2194
aVUMI+mSTi/1Z+PKeGuUzEZg
p2195
aV2q6f2msztw4YFXI4prlyXw
p2196
aV+0u5Qi47DdUC9zElT8IMfA
p2197
aV6AirAWIxtuQZ0s3JYXu/Ng
p2198
aV2VoqFALYhZOQps0bPdkEMg
p2199
aVqXPKNFChuDuz5Hs7n52oSA
p2200
aVqQsrxye3eaYCl3RUMgnA8Q
p2201
aVPvdXYNkgxT5Ntxk7vUib6w
p2202
aVKNtunMGEpXcfDr8zVpX8/Q
p2203
aViIhemgDNP8l/TJAka6pwFg
p2204
aVMNZxOHUPRdX1SwSj3v8z8A
p2205
aVBieN1OG8qkdCgYldaZu4Xg
p2206
aVKFAlUbxyUkCMkzMPsCgAuA
p2207
aVUYBn7wtN+rZ3s8jofZRXRg
p2208
aViVKHbsQx9+Y0ML4Tfb7qSg
p2209
aVSWESZFpwMY+4l8sjd5B72g
p2210
aVnZE2Jjzd6N7Iw/f/mLLEXA
p2211
aVyGTyKcbsMfQ/FwKWeUdlLQ
p2212
aVG3sWGFHwftXV4E3SqM/xew
p2213
aVcS2+9gDlB2fqGNhb/u9ZAA
p2214
aVcvDVbpo7Gu8Y8pik1Iymtw
p2215
aVSdRqQFHJdra+T7DGoveFJA
p2216
aVEpECFVOApydy8kuOYL40pg
p2217
aVAow9hGyLaIsMIma7iNrm9A
p2218
aVkOhSo2ORK8f/i9WcCehn1A
p2219
aV2zWtEh7ooHoEOcI7iL94lg
p2220
aVyV1Q2hPN63DOp1ag6g5yNA
p2221
aVWPpXLflhdtFJwO3taMs8oA
p2222
aVxZcm7VwRo59ig/ilD3AMRA
p2223
aVd3+ztTEjZDICGc5H2Vo8lw
p2224
aVIZ4W0rIUG3Wa+fPhig5pmw
p2225
aV+iFZV8N+eqbUbavv9OubYg
p2226
aV9BBmdICPiUgcXercookJrg
p2227
aV8fhoK2xseubZ2732dMzHdQ
p2228
aVyQUeahfm5q/nTijik53z7A
p2229
aV94/6CZ6tGXs9xcIkoP1QqQ
p2230
aVQpCBo7Mv6BXQkpvqdI9g/w
p2231
aV5GhCY31Vg3YuRVyrqdUhEw
p2232
aVAFNhzcI1q6BzXkZrWz3gdQ
p2233
aVz3JGim+z8lf7tmrGtkrCvQ
p2234
aVmFwZRKbBY34Md4C0jJKspg
p2235
aVXCAE4iplPbnIlwK75hYHcA
p2236
aVXNG/N6i65nHx3MZLlidukg
p2237
aVVLcJLZnjel4q5U2VN380Ww
p2238
aVDFKj2pwTYs6/TD617p1hzw
p2239
aVo/59DVOxfTYhhNtZZNnwnQ
p2240
aVJbtkNxdUp5P5Q8S36ofZtQ
p2241
aVL3I6Zb4doqm8E6UXsNrocg
p2242
aVgSN70dE3CJbDXo6pItiXdQ
p2243
aVD1coozi1z2VovaGX49+GqA
p2244
aVizj70Ar/DBU8ISR2AT7QpA
p2245
aVx9mxGrLr8LBlWpuzrJt12w
p2246
aVNC5QohqEGcttk5v8wCU6yw
p2247
aVhX2ZkR9mz/VqhKmxuOuTpw
p2248
aVTLnmrKvGaBBw0U9sxxf97A
p2249
aVqneM2nNzoS9ZkxEzu2Pq4Q
p2250
aVI097GMkYsCqQFjpNZZLwUA
p2251
aV9KYRlTN+cULJA27ITCYrtQ
p2252
aVXAGLGQDdiIUH8sF+Jp1gbQ
p2253
aVvpsdxg/YZpT5mqpXhTvtoA
p2254
aVpcMAcxEpzWa2GtBv3hpiBA
p2255
aV5+9YYUTbBLX+sESMj+e/Kw
p2256
aVvXNNFsIDpHZMsTMaq89fvg
p2257
aVr2qCPBVMmPO8SgYSC7U7qg
p2258
aVCQlLTOuHVcA5Fl7Hl4rvVA
p2259
aVHIM9XHBK1RvL2CpC8h5PYw
p2260
aVrEtFoDovjJ/Ir4ir1tSN8Q
p2261
aV/gVjOAN9OakMFmD4m9L6hg
p2262
aVNuEFg7jxh0w7NaIj+vrzmQ
p2263
aVi8qPYAXSO7uAL+sIDc7BpQ
p2264
aVCvvxkyIRHGkJySTeQZuO0w
p2265
aV7/FUbpbBdGwTYznpvCayjw
p2266
aV2lxSLVDaFfn3U5MTlQlATg
p2267
aVcd6Ez4d2681DjkYMmuYAbQ
p2268
aVrupBjZa9vmWEHlHIZjNvzA
p2269
aVIFZVBI2ZAOSl1XxUbkEvxw
p2270
aVoGdSEHWD6UdRPSyr0U1OAA
p2271
aV9bitP7JA3ru65zzsjQc+zQ
p2272
aVBIBRNzixQOpTwv6PMHUvpg
p2273
aVnyGHhPIT0rJkFRZv95L5jg
p2274
aVZPVE+8G7mNa0KJGJZ5hGrA
p2275
aVNhG9clldnV4dh2iaDs9BpA
p2276
aVNn+1geXtvY15b+AGCwLvbw
p2277
aVIN69q9bULX6y6b5Ki/viIw
p2278
aVVMSkETd3hZzP8OXfshqz9A
p2279
aVez6hXwp7qHcuuYkTF1KqlQ
p2280
aVJBp/tfCC9kk6xmc+psL+wg
p2281
aVl1bCLGuFqeFRwUfPsiDu/g
p2282
aVFyQA9T006RiAvf42gHQGsw
p2283
aVURd1fb53fsU7lsWSEQMgxg
p2284
aVpuPP8xjZua9TaTBG0BymDA
p2285
aVtJispMjb8tVdhb2ixcg9PA
p2286
aVHiAfgiLNueoHyngUUWZLZg
p2287
aVduxuCksZFbfQ8JrnaIqZHQ
p2288
aVzN0sGLRMCsno+5lzxD5HEg
p2289
aVMCBV4WTRX0BBc4d2Azff9A
p2290
aVS0iMNU/U9U94k7tjcGb7cQ
p2291
aV/s2PNOO7Nf/iUnAt+9x0Tg
p2292
aVQnnfUeUkjkM+5vBs4G9tFA
p2293
aVqLpQwYy066EvtSjYEdPYZw
p2294
aV8gT1FR8JhNAp/vo9d7zdOQ
p2295
aV2islrmyJQI6LD+TQVzG5IQ
p2296
aVE5gHtN3NXH2sj3aAVYXFCg
p2297
aViwoy9xlNvnTRiLk7GP9liA
p2298
aV6HntRmFgcMyTPzIsh4nOdw
p2299
aVSrqgiE6CYK7XHmVIOiVYhw
p2300
aVPCU18XGbQcPkSKhr9PdPUw
p2301
aV8Myh5ALpN7iWf3Abx6nLxw
p2302
aV4h4R4mBEvmCtQg7E9kvkuA
p2303
aV4JwUWe5XUi1dFZ1f6kw9Ug
p2304
aVuq/6qc/A65vvIBifEJTbwQ
p2305
aVwjdyeUdv7voy7W00eMhw6g
p2306
aVbikwYtMsqlGIWpMJ4q0/0w
p2307
aVc803k/W+5MKW0CM5Vwenxw
p2308
aV0uY6pUzSFOcMw2aFkKyWHA
p2309
aVcJjpatSPwpbeiH39DzGHrw
p2310
aVt8kEDICRg0uV2zKXPT/dDg
p2311
aVsNoVHBpBPI0xpDZwkYkFJg
p2312
aVQjVm1XRVULP0hgTL4kIW5Q
p2313
aVLWu7cUvBurxta56F8m1b6g
p2314
aVuWHY4MPJeKh02PevTqdqXA
p2315
aV4wdcvRZDcftLdKYS+uS6Pw
p2316
aVi5Dwhl6r9qE+6mAsW61JvQ
p2317
aVAQ/l7lLQKdAA9unfFkFwPQ
p2318
aV1ekno/DGqPWTMPM5NyBKSg
p2319
aVjUm5a7WwLUbZvUHp9Poz1A
p2320
aV7t4xiLrjSxN6RQAEvzH1fg
p2321
aVNn82a1jdxiKZ6hmjsEaRZA
p2322
aVCEoi3htnF/vsyu9mrKI3bg
p2323
aVL0wLeZT12m+73aQa8rsMLw
p2324
aVKcjfF7t6ll7g/s+MTFDO0w
p2325
aVL1o/YEJjZDxCp22xFhNh6A
p2326
aVPj28yhLBiKpN9vq8/XLDyQ
p2327
aVX/DECkLycqRsvgqvDjSxjg
p2328
aVE9PK9mVjmxebjRDzjZzZhw
p2329
aVzjLHVlMiipilRs/CoFxoxA
p2330
aV220CFneIenogSFQ33pMeoA
p2331
aVHa+0t4H8FQnTmV1+rqlZxQ
p2332
aVAAJqonstvPavQoSPN30BxQ
p2333
aVaFihcfxg167kTw5oUJAUgA
p2334
aVjqZLprGoS1Tubc7Ft6pczw
p2335
aVkczVAxMl9IVQn3atcEEDFw
p2336
aVj22/tzi8E0SN4DEZ4bTv3g
p2337
aVfgYwjwTwhVZIZONQdCPcGQ
p2338
aVuPOSYlOy3ne56iouOVS0+A
p2339
aVBM/h23LJCE8IMeGfc7knmA
p2340
aV5OwiDYlDKMn/u2/3HrTZBQ
p2341
aV7I7RYE+DyVv9a2suFhCI8g
p2342
aVgn2nVGEW+Sk3AKZ9rQ33pQ
p2343
aVR2WtWE+6NYlt4/YHMpnsAQ
p2344
aVkeuk/ePL+1EKT/3fl2zHzQ
p2345
aV56TtvKUyTB38yWOefv8h6w
p2346
aVm9lvjFdQjrgJdwWa0lU9WA
p2347
aVFB8eag7YUZknT5ygsolmSQ
p2348
aVjfGe2G1ycvT30ukcgR41KQ
p2349
aV6+RKedwh5bRuQxilqfqgxg
p2350
aVp8yYMU5wjmwPkulyq4XIJw
p2351
aVvrBvHAlbZ1S19MJyLNtCjQ
p2352
aVwn6Y9k656bQZNUpovbTYWg
p2353
aVvp8u3+K+RBvq82WWPdzAIQ
p2354
aVSAbjkh3IuOQD1xI5eIQIzA
p2355
aVpAo2MZghrfZSgH0nT/Qrow
p2356
aV9xTeEwJ7RY6U4MtK6EQCSA
p2357
aVbkcuE8vrY+yfnv2yIdFrYg
p2358
aVeXyr0mG4BvJXUsZAyL2MUg
p2359
aVsScsKByLtWSfWrfH+gg6mQ
p2360
aVVVCZ+xHhCz1BgBR0m4JhAw
p2361
aV3ftet1Ngoq3vr4dfswrPAQ
p2362
aVwq7B4X0WBs5PIB/O0zZHwQ
p2363
aVXAJjzFW3EnfBjiKrhocXdQ
p2364
aVptupKDbfWwBWB4xrujRniw
p2365
aVmVHwJMaOHK5bdNU+1YfyZw
p2366
aVbwqIixy6C6wfpBFC0MWfCg
p2367
aVjqORKCxZpPEhuzC8CTfj7g
p2368
aVQaP76aSRKhT/bVNjKkldZg
p2369
aVne+vCHB9vSwuIYjzzaP2fg
p2370
aV+aszTK9db8/UHXnXkTSU+Q
p2371
aVnqNMO2ylBX8QfTEfw2ZnKA
p2372
aVb1XeQIjVK7I1Vb6tiFDKZQ
p2373
aVffShVKD1hN5W/RqIPqCmCQ
p2374
aVNglycThak9nTNwmNHxaunw
p2375
aVvxSGRH8jnVnnkBa82IxMrQ
p2376
aVe8iOdcBPSDtKbG1IFK27uw
p2377
aVaMUxFe7WOGsaCb4EFE5SaA
p2378
aVTmKBFDTMzV3f+C/n1iWjGQ
p2379
aV7eqrGTlvrEYRMBEhZv3YgQ
p2380
aVx8+AdQ9eE6r+RKTGiwNAEQ
p2381
aVMc5Pty08LbEDtwEsvAJBIQ
p2382
aVEo4HmGuRQ8h2V8b35T0ySA
p2383
aVzj/bspDx5sG+ARwH4RYUPQ
p2384
aV87smjMWVvplYHwyNp/b4pA
p2385
aV+leMDbdqlhLeg6GeHecC4A
p2386
aVlYj/DFzMrTkak7C+6p4Hjw
p2387
aViODJH7NcOORC37aeBL/Amw
p2388
aVu2qH/P9F8Qlvk5s5QpGRrg
p2389
aVk2L8+dYNTSmqKzjwh/YSMA
p2390
aV2Ixd2UgzSPsVfRcu7RP6ng
p2391
aVoftNteuMZkQrdLLlvcf/5A
p2392
aVF+9nloz9tOocSfqy8kq5zg
p2393
aVfcQiknOpqVvyURHd/xoRQA
p2394
aVlFEaM3z/zCR1/LT5zHzxrw
p2395
aVe1i3MUAO01gxZwT024MSug
p2396
aVXgkdC/R0vVInk/UQLJSqQQ
p2397
aVgrPwIVW1XnsvGYKMm0oA/g
p2398
aV2JDXTxM6ZpRVYzLkWHlmUQ
p2399
aVUZhzV4F4AteZps0M/Mj0bQ
p2400
aVeRkc/BClIWiLqLVnLhzVWQ
p2401
aVcSON+fvR9ZdVeTMMAqwWSQ
p2402
aVKzWI0+oJGa+N4lj1WdMkog
p2403
aVYoOPf2xAIYOAZjRHHGHFIA
p2404
aVlmlChe+JOv+ON7SNcy3RRw
p2405
aVxyJ5W1DcOV0Hz6JHnOxFgg
p2406
aVANBj5qjqv9rA1XOXty/DBg
p2407
aVS544Nf/hrblOTUE0gqHvkA
p2408
aVE++4BKle96dOxC3sEwVA+A
p2409
aVP+5W2jvg8GSFfvVIg/H45w
p2410
aVc4dXK581F+PEnTgg9IQWZA
p2411
aVXT1dwu0qXW3mIeilzANIWg
p2412
aVCCxW5RgNiwxeghYDh5oBhQ
p2413
aVYZAN+BTeDvjTFkWeKWlEkQ
p2414
aV9KRbO9qsDxsioVqIaTexKw
p2415
aVp7zrb8bqlMO9pBY0nTqS8A
p2416
aVklnCsqff2seq5Vt2laeg/w
p2417
aVtc/2KqBEGXbJS6qgSknhvw
p2418
aVwXz7twhdBIBAxPA16iYoyQ
p2419
aV0KyIEYCGzIR1iUAGRG8GGQ
p2420
aV76lmAhFQHDbcV8JuQUYvbA
p2421
aVwa0i7DDAi3hmRQKUiEl+Mg
p2422
aV8g5B1Xp+Ssd5Es4m9XqQ3Q
p2423
aVdXTOuxO3g/mJ76I0zV4BKA
p2424
aV2Y9IvdtQj8DSvVvlqWn83w
p2425
aVhX9+1tE+M9AYMcB4su0TTQ
p2426
aVCslttazebxLne9eeBoyCLQ
p2427
aVR3p4qQc/ZjAp2QxrZFpD9Q
p2428
aVTn6uOhr68wth9KBqkrhC5Q
p2429
aV/hPl9MeNuk3KYgj1NLBOGQ
p2430
aV2TpMGMnrMdW+wK2nrrsp4Q
p2431
aViEdCO2uA2nKl5O4N5+LNWA
p2432
aVYjBeQY3eTHvMA22JZmRAMw
p2433
aVqwlY3juOuhCComWtClLnXA
p2434
aVMnY+9VnLLs8ZS5XknFitag
p2435
aVbWVzFFzOZOHCBY9lYVaY5w
p2436
aV3h5TPVFteMuEjjxq5+11Sg
p2437
aVryTQM4uf8qrrNCyNnpf/Pw
p2438
aVZjCr0cH9CTEjzxve10RIzA
p2439
aV2RjQ7wvf3irGmG/DVf2tzQ
p2440
aVS6EYaeh+/ZdAfWbMNCdVGg
p2441
aVprb6GgwR3E87R9Re78KVDQ
p2442
aV7uKPjPg5l/gwaCxpksjtGQ
p2443
aVBFSWRo+IUVKkEtNPesiJPg
p2444
aVXYfV2rnF2ZATNxNEBxg13g
p2445
aVQO2YSRy0M1yjFgvpiDYqhA
p2446
aVNQvq/uVEJRW+inBbVcSmVA
p2447
aVSwfZFbc5jv4u4ZVS7QZzdQ
p2448
aVxAWD0DBcrTVpA+8Ddlsf1w
p2449
aVD72I81Zlr8TjmUfc6TVftQ
p2450
aVQoF/arazcBOb1qdnbH592w
p2451
aVoGmiB15FBNxNdITzuHycxw
p2452
aV7+9HCmPMq4DBoWVocwDNFw
p2453
aV/N/nCdAItYAcyqHphTv0ag
p2454
aVVEqYASpFHDoNCIKL2MaA+w
p2455
aV6MmwtNgSwsu+3sqkNdFLBA
p2456
aV0Pfse71Hl3lQyuzvXqouyg
p2457
aVax8iuMNidcRIQph1/ClITQ
p2458
aV8Jg/LrKY0mQK3HMY7m/8xg
p2459
aV3zUk/uIKqiQwUYjKV6x/jQ
p2460
aV187KRRlQhtear0ecBvKkeg
p2461
aVGCWMoRefpz/gbEOY9F8GKA
p2462
aVamiMZ4JIC3q9Q/0mhMIi0Q
p2463
aVg+WTYeqC9QeXpI8/7XOIRw
p2464
aVVgTdm9xIifaS8iDKrOTJ+A
p2465
aVMbxFyIc25sUlgBy0TUmjFA
p2466
aVC2M/V4ka8ATSPGaK1pwK1w
p2467
aV1Zi7XFPfXuoefI5jS/Aiwg
p2468
aVmc9vgTrxynd7azKlxqYC9A
p2469
aVfHIX1ZCr8DwvcOmOpUuong
p2470
aVJ5z9hHFVbOkzg+L+eW4fEQ
p2471
aVNfl1ceuSvdcktwHFoyQmWQ
p2472
aVKiBo16okrwbqvyBU8EOxIw
p2473
aVfpIY7gGxxZa0WXhg6L5Kug
p2474
aVCKzH1WgWe1d4A1c+wnFRCA
p2475
aVKj/CpsbM1b333guyRij5iQ
p2476
aVTDZBDiLTXBVu/OdDm58LKA
p2477
aVfK2UZd6czffoU0kLrFAwkg
p2478
aVw4CTNTmTkGuIHvHjRsKLFA
p2479
aV0QDKF/TpKLx9986MWQyX1w
p2480
aV6BUm5hWxQCyxBxJDO1nsRg
p2481
aVZRHGNh70V2EVfeKNgWM8Mg
p2482
aVfqh+gQY8CWcoocPQ2LcDOQ
p2483
aVHvgUocXJU7mck7Yh+WpI6A
p2484
aViJcacfbTFTrR0NwADDC8KQ
p2485
aVQMqCp3hSAN6LrPES7Ew0YQ
p2486
aVn4yD/1qSycqtO+DncbB/mg
p2487
aV0PMrSHcVJ/5KomOhykYX+g
p2488
aVL8OKyg8rtOjonX//SXCKQA
p2489
aVBWO+MtfuNciUCxzBCXUZJw
p2490
aVEhPGQsblGvZoSDClLUdupw
p2491
aVhhNbT/hgzoM4VKVSFThfcw
p2492
aVA4FpsQpdO2+QUN+e7mfHFQ
p2493
aVT3hKtKTaRlKupRpIZ9rB/A
p2494
aVO3s9IsmHGwUXmVX06sW5wA
p2495
aVsHJSQfOMPM+4AxCziUMG5g
p2496
aVPF89OxtxxGgEhwX613C1cw
p2497
aVCO2uzM9+tqJIvxEsfDf5yQ
p2498
aVNI4DTs+LYZtcZOR6rTuEfQ
p2499
aVylNFHSD7uXV407Rtmwqyrg
p2500
aVCfGP3cICEmmyjPnTdag1WA
p2501
aViq5T48UIlhW7hdlarhmaeQ
p2502
aVw7l2NSTtgKGeGC/KhQFW6A
p2503
aVKnANOUuLFh8gMhRAOUt56Q
p2504
aVrP8cDydzFPZUnKXeh9HmJA
p2505
aVlIukS6SlV+dSL4vVgXDMUA
p2506
aVywt8cxBaEFKq5a0gakv+bw
p2507
aVDD0gt4EbMPYa1DWeG7xmrA
p2508
aV5IkUs9MbX6Rww6c4WlGyXw
p2509
aVDAorqZQDIMPHa8lh9CdYNg
p2510
aVW6bML8dkcSpqb+hLrgUkcg
p2511
aV2IQpETPFlZTLLX8HlPtUjg
p2512
aVo6lWkGb6eVR0fHM7//SgZQ
p2513
aVlt5p96mKIq45iOUK5XSqRg
p2514
aVYU29eKp6SbPQUfEXDP7ZLA
p2515
aVZtt2LBIjGSCG4Lvx1mh9MA
p2516
aVO3KzrKxcoW7weChRd+c8LA
p2517
aVQE2Vn7Qn2j+IUR+rOKncTA
p2518
aVr3NrRJhB5IGjvpQm96nWsw
p2519
aVWf4KQ6T/hXnI2JJuBZeS/Q
p2520
aVNu8pL4OGO9UN9DH3cn73gQ
p2521
aVZMPTfcJQhPSgZNGBgn4fSw
p2522
aVsGsHMJtHuQl0DqxoWas0Ww
p2523
aVDJrgy62V4xIdfepozxC9rw
p2524
aVIJiatEr8pupzQTmYnUTm5g
p2525
aV/3pwMn5nbdUzEA0eXQriXA
p2526
aVhth6Cdvi3X+ZJQdbb/aiCg
p2527
aV773NBUTbk3N1Ff3uMvZlzw
p2528
aVL2+aro6leVvpDgo5USu/Rg
p2529
aVug92PVvoNiLUYEV/aP90QA
p2530
aVzyAPby4Vard7BBI9rv5b/w
p2531
aV8LxIl30FbvJMFlng0TRnOQ
p2532
aVZlv/QgtXhRIvxfhWFTd4vg
p2533
aVbSfGOa06QVFzGSxZs3zFXA
p2534
aVVHckUgflLYvyS0vhUVJSJA
p2535
aVVgNiHmmVVIknM/enxC7/Tw
p2536
aVnC5VfuZh16QQaupaJEMQkw
p2537
aVh/FqOmCPt7pe4pd+iS96Kg
p2538
aVr+mrrKVH7uOhU0jv3KCUDA
p2539
aV2Yn1H0JKFWI/AYidLXaajw
p2540
aV7qs/4NlyGdCsSgyzIyrHHA
p2541
aVosItX/xZ3Iayj+o+SjIldw
p2542
aVTqgvwA+ME+meLFjJeQBgwQ
p2543
aV8VifFjmdv2GP1WqH1H86lg
p2544
aVxewULD3qkDxz/zX7J3Iw5Q
p2545
aVHoRzAYFuvhgv2I/UEZyC+g
p2546
aVtkkhr5sxlascWCTHYicL1g
p2547
aVpvGS9U90py3TlBZ+5BnsQQ
p2548
aVkolfTt4dDhxkmJ7WF60ejQ
p2549
aVA1tdZE1+lxs5Yj66xxk9NQ
p2550
aVQ5L3pamrkmUogFRqCjK0bg
p2551
aVz8j0i/NvIz9Xv94n6qE9lA
p2552
aV30SdZoZw4U4NEOFaMdM1tg
p2553
aV1g7+Atf5m+V0qBYzFyxKBQ
p2554
aVnfv/gLh9H4YmRu9RDem2Jw
p2555
aVacMY4Lu3gUCf87sp7SOeDA
p2556
aViJCkUcUgyLc/pdJ2UHpgbg
p2557
aVBbYhk6oeZsSOubCEsIv7WQ
p2558
aV7zXESt8EZPf5qynPLuBzwA
p2559
aVMdt/iMbnMYk191Mi3YcsWw
p2560
aV8AHV6qOCGRIP6vjzlkMHfA
p2561
aVi5Dice33Nyx/7OOJzWGjaA
p2562
aVkJg9yyvPgbUPBrv7oOGU8w
p2563
aV8ypMOwxnkGDh7kI1UZQoMA
p2564
aVE0U/vaqSCUYUJlgmdvqrtQ
p2565
aVChmrswaqfTRe4zAt//2aAQ
p2566
aV8BIpgAb1YJZVFywukS0cqg
p2567
aVoBKIugsNu5AVtzsCMSiP3g
p2568
aVPazLzHHqfABrW3eIhVIiEw
p2569
aVF7HK5QK/k5T3HUFCS+73Gg
p2570
aVGXk+ahcmW0tpSVL1CikFrg
p2571
aVkitTp5jT1oMTEMODnvLfBg
p2572
aVjto9xmmj+Q/Gqg3GQSmgBA
p2573
aVGIrQxwSgoV5KTR98Bn77Og
p2574
aVeGod6oDWeH4CJh+Xt0SQrQ
p2575
aVsCsQGI0NrzNv63rboTnKiA
p2576
aVFcuhhsARRGNs7v2FKB4stw
p2577
aVO/Xw5rCOQ26Y1wqw7A/MxQ
p2578
aV/5YontE88kPkE01u6tUNoA
p2579
aV4JI9H44PzHKpAQ8IVorWAg
p2580
aV3nOv/29nSK10NOB+b6mY/Q
p2581
aV0TANueHFa80xHrNXlN1VfA
p2582
aVV3KMgRSuKXvccgfQ9VehNg
p2583
aVgyVMbVp0O9kHrowYnDubFw
p2584
aVyhGTslw/cNms0GFznVkd7w
p2585
aVJ061KdbS+R4ZzV5mhClIrA
p2586
aVhDXmQW0qXdkawSQyEdsbEw
p2587
aVLbAlwJGdgqnKfJ1+/LY3Ww
p2588
aVNQgR+N3VGOtIamzeWInttA
p2589
aVx2VVWXv4lcrK0THkf6ZiHw
p2590
aVHVDAxK+JQj4aWkFZrUUGuQ
p2591
aVQoeBLY5IN1Gn/gRv6HibtA
p2592
aV0F8kfuGUSlEmRvw2RvWMlg
p2593
aVXZgwsaxoNQ4yBHj91XgTaA
p2594
aVnuACrroD/NV7UDQTu+D2Wg
p2595
aVU6l/3asXXgGBIuGxarBxMg
p2596
aVVR4UEy1oNrmUpShclM9+CA
p2597
aVfpm1JmAeQXLueuIqWlKDTQ
p2598
aVRGqkNWlLYeSAjuvW9OvP6w
p2599
aVGye5rs0Pxr5PocPFBNm0uQ
p2600
aVdjknr87IMkGf3mR3/qOB5Q
p2601
aVsl1mEPjnjvnFkaVNLS+aGw
p2602
aVN86lPAwxvMJZVmNm0paYDg
p2603
aVuY4Rt2GkJwZAGAYTLPp32g
p2604
aVlc0c6NUBudZCyYdHbBSlCg
p2605
aVSotUWNq5Q2U6QsAt4xbe0A
p2606
aVmeiMpXhYaDr1ZFUzBsgKig
p2607
aVVYXWdrkgxvuO+WQQ5P3gRg
p2608
aVJ6jeYNb6QxKA62jp+H1JnA
p2609
aVkwhpbhGdLAjMRRJOzE3HBw
p2610
aV6SDlNR69Erk/+diXGF/Jtg
p2611
aVvCf3HwphwTQi8nbU2d1sEw
p2612
aVXHttAcLtC+MLEBbLk5EvZA
p2613
aVq0hAZ+dhpcrnCzTYTakIVw
p2614
aVxFSjQXkG3CPmUjpP7DsMaQ
p2615
aVIdjwf+InqdbOA5DlAir8/Q
p2616
aVKG2Lhi+36Jy9eiavaW2X6w
p2617
aVc9OkfpYQDqh36VHSzkfEng
p2618
aVugCZ2w3uK6LBk2FOU5nY0Q
p2619
aVFW6v1JISoQp3DC+spd3Unw
p2620
aVV3+wLOWWJGdyGEPsHrWOrQ
p2621
aV8e24BmCvtYDZbt58gfzg1g
p2622
aV5JZsRTG/ovkZhZl6cSnjeA
p2623
aVjzhKcsjzeM8Zaw5lPEYSig
p2624
aV4lf1bu5ffdaWBXJpd3Yv9g
p2625
aVBXDfDULMKcy6QUDcB3MGeQ
p2626
aVH10TGJtjhcY2Ip3E7mxYKw
p2627
aVgpHgc1+JAP0fG1RQ8syYbg
p2628
aVc2tiA/SMUK+T0PsP2rCOGA
p2629
aVYLSNH9S1SzGenlYOYi/v6w
p2630
aVeYmPUdR6FrEFTfYT6mKddQ
p2631
aVIrkRn/9uw6IR205Onj6QUw
p2632
aVrhJ6ZiSZnpOG+i5Hbdk0xg
p2633
aVD9/n8IcVyWhkEay7oKSEGQ
p2634
aV8UbAgOSbfcNLpLfYg+040g
p2635
aVmmjZ1BkDVs+xxAqDXdXk5w
p2636
aVEz+x51bMWFldxK3fVqZ8Jw
p2637
aVrEhwZERyPtIw/Dz3Yg3RgQ
p2638
aVDC3JBlsvSNHEHhHai36bGw
p2639
aVMKoOxYYsw/YqUusQRRMPRg
p2640
aVmsngBwBFqKp5DVLUST2+2g
p2641
aVqVdzREE3y7NbPJftblCfPg
p2642
aVbXABX0EkllcvEovfgjaDxw
p2643
aViRQdMpbYSV79se7Bcax8ig
p2644
aVs2XMG67QMBmEGsjr4csSkw
p2645
aVg0AGV2iQZqQumz5r8LzbDw
p2646
aVoA7F8HKDjF2qfjNxk/TGlw
p2647
aVs6B89AX1As3wTeq4njcIjg
p2648
aVZvbRlUDs4lCSlMjQyYjMkA
p2649
aV+75mRm0fvNHxUCPfh+EiSw
p2650
aVJr67K4Xer/KkZ+6D9SWrJg
p2651
aVs32ZeVIYgydmt6Qp4sl9BA
p2652
aVQyp0ZiB1zwUnpRYCmgxsPg
p2653
aVkyfsWEt2YZVsgY6HV90VwA
p2654
aVgqK913Ttbhc1SSfUTT69sA
p2655
aVhJtrp1MQVtWcUGPp/FmLGA
p2656
aVVhY/EvNWu3xaBCUyexngUw
p2657
aVoT4j3lbAbS8YeOFthzIDXA
p2658
aVYL5xu+q2ScUp8gssZxV8Aw
p2659
aV39PFzEEMOSztLWZs+XoVYw
p2660
aV1Poj/eTxeBQggNTPt4Bvmw
p2661
aV5uSKIH0CsVBgDdtxySoQ6w
p2662
aVwbQu7zBn+zs9ZApg4IMiaw
p2663
aVpNIl3ofEbpD/zoycQIQNxQ
p2664
aV2tIbY9dqm9ym97Zep2qQuA
p2665
aV51CvQKHWwW+6Hf0lVucpVw
p2666
aVngpkIMaDiArNogoINtmDxA
p2667
aVGsgrhCIBXqqLRf2HDr1P1A
p2668
aVxRdpSFRnVupc6H7LGezarw
p2669
aVo6Pd/wpfFecIUUEjkfXUbA
p2670
aVNQE+1K3IDxQSzBygGD1QSg
p2671
aVxfUD3OnzfLzeUabhxy8dLg
p2672
aV4lHHpPGsIupIkQebtZ0cRQ
p2673
aVcLFZLYHih0EpBLKeTkuzkw
p2674
aVt3hl696mIQm2+EQat4/evQ
p2675
aVrOh3G6jsdrKBi8XQpehrKw
p2676
aVwZwAwhb6+fkZ2IeG+HATLg
p2677
aVAt2orfujBCEHuIf0M/DsRQ
p2678
aVeEEUVZTgrwRp2O95J01M0A
p2679
aVrUUVdCewx1gNEYPR2OimZA
p2680
aVCT0yvuv88hfTVENqF42Sjg
p2681
aVbUSAyuqrQFtwfNwjb1za5g
p2682
aVc0Bdr5oNbRLhpg14KYUzDA
p2683
aVTpOuEuYtRyG/f/Chlh3tZg
p2684
aVpNtn/qRmdXl0ZvokB0HE8g
p2685
aVV9w3m3p6NQCv9kJv9yj3Eg
p2686
aVDlUnNRqkqFlSKu5f9iaQ8w
p2687
aV3dd98VZJqY03ktQUKd1ZEg
p2688
aVTjKqzMaGiay6DIrKYXJGpA
p2689
aV2SSVpESXxpAKqplbtdTJzQ
p2690
aV/XRVX1uE0PKPZEoE5EBaQQ
p2691
aV3gfZnMfFTDUztaFOhEPPRw
p2692
aVwPPtDShJ7/ncXUeeKuFJ2A
p2693
aVk9RjgEE5zK3DSNIRkyYZlw
p2694
aVnyZOOYD7u0ACVTqIt8sZng
p2695
aV68InNJG/aZF/7+kL8kNQ8g
p2696
aVwYcVb3v8xXEW6Moc9Pqx0Q
p2697
aVJKafxyr21hf+mrFwtiO4Kw
p2698
aV7L23EWse5qkDj68Hv1EtiQ
p2699
aV+zmqYLgR+hnqnIuGrLJw3Q
p2700
aVWGeIy2kiOmlqeugFeE3rWw
p2701
aVh2nsGB5Uv018/v9dQV0hvg
p2702
aVjxImkw82116EFGB4rjESPw
p2703
aVYLqI0kpfBkFjeWhsHGToJg
p2704
aV+/Q1Ota2pZSiNp87IY0oGA
p2705
aVa35pggF5gXtxdFKzL7KbSA
p2706
aVOFOVqJfl+FrfmzUJN8j2Tg
p2707
aVm+pKYMpt0SrfjHnyC8yycg
p2708
aV9vNCwyqZs3DtZbpl2hkAAg
p2709
aVie/nhI5aUWmHDmHPCdBTYg
p2710
aVs4nFXuEZzr8zcwrC0Er/5w
p2711
aVmv1CO19xAl6GQU6prxgkRg
p2712
aVLw9QOaf4OnS/SkfEjT4Owg
p2713
aVPrlLYAfl9yaPlncs2bXE3g
p2714
aVGq6NdyS4+UI6LaFA9QZlmQ
p2715
aVFUzK8J4SiBdEpe2tdEgV8g
p2716
aVGFnF9sHZc3cSDIxnX6KpHA
p2717
aV04xVY18sINuEQraUFr0sew
p2718
aV0d/5GkW3Eo9xHdtC8wFj3w
p2719
aVHveKMDw8G9hH+YCRhnKl0A
p2720
aVLx23ArGii1VB35FXZbNEaw
p2721
aV8pvjXsdwUaS54PLf9CmqJA
p2722
aVdo0f277Qc8QLCSud0cwvPQ
p2723
aV3uQMnV96196dN+5OYqyhtw
p2724
aVCU8aJNeiXxstRBU8KxslEA
p2725
aVZdvui/GqghgL1CttQtVJYw
p2726
aVn69IX+0vOydhV0y3uR/p0A
p2727
aVBL0ciT+s1yq5tX9oazOKyQ
p2728
aVthE0OK1yYDElaPXJ/Aox2g
p2729
aV+ViOWIeHNhzCOCYc7htCQw
p2730
aVg5ylR0JCvqTMxa5H5TI1Kw
p2731
aVth5sGtOTgeEpeEgqc0is/A
p2732
aV7tnzBwRb4GP4KZ7/EXKUNw
p2733
aVTzBxkybP9p48PwC93Zh61Q
p2734
aVfee8o8fMq8pd+JFXlL6J1g
p2735
aVgNk3ZCtes+ChUBGuLfxZSA
p2736
aVQJzEEjRaBABj44GyjvkYJw
p2737
aVBxnrQ6HSc6C+mMlkGLkwlw
p2738
aVdFGvNm8WcX7nJ0vxlQGxWg
p2739
aVZQSClT0d+zlF3fBnSOegZQ
p2740
aVbqxbwwzsxHfXmR91a5RyHQ
p2741
aVS4c9umfiAyZBteChxWtV0A
p2742
aV+yDUSW9e8powHZhVnssbeA
p2743
aVim1NY08UgyVymfg81V4ucQ
p2744
aVOJOHF2DGqXPk+oISFf+OuA
p2745
aVv/GztuSG/XVLSW5Yqd0DDw
p2746
aV+kdbpIio30gjbvDyk0ylSA
p2747
aV77qU5XeEzMTyL0JWbqLEBA
p2748
aVvuxew8QlTmcDJGUrSQ5KWA
p2749
aVRrRt0GXdigfpAYJqqOTdnA
p2750
aVP7BGao9Xk1MdyKsMIm3fhg
p2751
aV9gAJEO9YP/MSdUt2/gKHxw
p2752
aVc9oqtuxKStqqxS8+bjGKIw
p2753
aVE29UNvjPSj0VELnMLvOInQ
p2754
aVc0DlXml+o0zeQdTxbJatdA
p2755
aVDcVTClaIbw1QaZDOZsWNuw
p2756
aVpIInA04sj7uBQ2iBNs8dxg
p2757
aVO/HFQpJAifthwtFB46z3cg
p2758
aVoZo5ilKZ3EyEwCL7R5Fi+w
p2759
aVpg7e/5qJ3g/8fsmD5oB0mg
p2760
aVO6u2ZQF1og03Xa4V/Vu4YA
p2761
aVWTzIcI4lKuldc/ls62v+ZQ
p2762
aVg86RXhgxX/rkvXugFXNsxw
p2763
aVzt3fz2X02vhejl1eP645ZA
p2764
aVUYTkjOJOxFJ9aRb1UF+k2w
p2765
aVZlp1Og47/PaWYYGltN9idQ
p2766
aVWlREWV+bHiflPw0pZc3LbQ
p2767
aVoDCxcHgDaKDmdPRxYxWYCA
p2768
aVepIGkJOIv27KyGGFJpXONg
p2769
aVpxY5FaQnYo2ln9kZiHXRVw
p2770
aVdmBjmCP+5eyb4F74OCLARg
p2771
aVplooWcW4jNeMSv9tlFuzrg
p2772
aVvOQNEPnlXJlkro82pY4Y9g
p2773
aVrwCKaJz/OT/u9FXTE1zHbQ
p2774
aVAba8NScoOkxYyWjIFsJFeg
p2775
aVlBuX3/GilNlrw5qTJM4gDg
p2776
aVdc1VaFCnI9mh+kj1MNDOxg
p2777
aVwymfyPu+6Bed+pVP14+pwg
p2778
aV2VN4r7aNtH4u2uoRt3Zqsg
p2779
aVV0RZYjH8euBlLrq+sw4pHA
p2780
aVT2ajzRHKw9rbcdn8+iwiCw
p2781
aVgQCnMYfh24C6NxCkjer+dQ
p2782
aV9Y+b+VYVwoBApT5r5xQoxg
p2783
aVdJ/zUTDkchqPHNLrYTqbgw
p2784
aV9nH9yPqgS7WNhzfl53XgZQ
p2785
aVpLoAes1mz02F39Is/Smq+Q
p2786
aVo0+IjXSMmPDaqNAJM1tm9g
p2787
aVT6sJggRsZrCIClOAA5h3PA
p2788
aVN9zPI5ifZNzcnCU4bi85eg
p2789
aVhxGybYtQ45sMI8/vhwxEXw
p2790
aVC+mqxJrgz0ZKo4HPTgPgMg
p2791
aV1Nc5jFlPmhI8+l7iyrLXZw
p2792
aVGz6PifiYtVhND0sh1TSTSw
p2793
aVM2tjs1W/Vj01sccCHm/5Rg
p2794
aVZy4kvKt+pFg+TFk6cUNNYg
p2795
aVMmpnPgRw9zD39u+rytUzjA
p2796
aVAo3iAPJ8k5WAxNUyHPvj5g
p2797
aVys9vXwkQwm1UlJ8pHrVLKQ
p2798
aVG0G7cZehfUAb1xhetXTtng
p2799
aV+1DpdiSdXGEaj+ZdGhsfiw
p2800
aVNElAMnUvIjfbxoOUIaD3HA
p2801
aVVRVOId08RaC/thZwKVdTzQ
p2802
aVtlfTBXhjLPlpGfhMUAMYnA
p2803
aV9JWdjSzP8ahtLjYhnCpsLQ
p2804
aV1MhoSg3M1qADJ/u0NuRELQ
p2805
aVyJP+/11MT2aytbNlRUfmwg
p2806
aVbSx2nW2OUO5VeqLG4Sc+Sw
p2807
aVOEXztHVBBUq7wA44Plrifg
p2808
aV8ZtcJCSixZtu/GjrZ/O8mw
p2809
aVbzyoL4RbkD6hG/LGU6YYaQ
p2810
aVf01wrfSwGZEIhAj29Z1W5w
p2811
aVwMdq1Vsfb3yU3bONnHEvmg
p2812
aVgh3oDG7ru69g8+FgkdxjnQ
p2813
aV8cE72wrpE2ExcxrZTvaIDg
p2814
aVZpYc8/ksQYSNFEFIeiSSWw
p2815
aVSpjF+S5erR+ykczwcx7pyg
p2816
aVMZMGMzpIgCcLDvt6BiVPBQ
p2817
aV29TRvsUIOfCtgBIa9W9tEw
p2818
aVpId/yBTIzT2BMyOVMSyGKg
p2819
aV7AD4JXKdO/w9HAinbvHeGA
p2820
aVUafh3faojMBFjAz/ixbs5A
p2821
aVXEQE7gtDEXg4vKSTX+Oaqg
p2822
aV8UgitRBk6MrQBCY3TRemgg
p2823
aVl5wg8OfkqyI00jlQ/4WWIA
p2824
aVxwqsR3k1I6/a3ZUbj51I0Q
p2825
aV3A2+mhiX12JKTs6H5KK1WA
p2826
aVasl6ZIVcC33jZBSDH1cvsQ
p2827
aVLQnXulf6BMMBqJ5/fQumAg
p2828
aVSAPA079V7iwu6qJAo8eZqA
p2829
aVleKAgaVPWXS0UEZFMTLU8A
p2830
aVe3VUPXvSt4sHEthn5QfzuA
p2831
aVL4NaVzYxOO5snFodp8XDyg
p2832
aVNzE2EfzkbcxZctPUi6kwnQ
p2833
aV91iaegRYBOjRbeBQ+mg8ug
p2834
aVDCfi6vnGDAi8fXKBjzj1sQ
p2835
aVQGIGXK7WyGqCXJlVLJ1K5w
p2836
aVClcozat6wuWEVPhkWUAv/g
p2837
aVLTd620t0YugmJl0+Qvx1gA
p2838
aVn6Ou2p/ieAZ5F2PtaP58Ug
p2839
aV6wb23J3WtjAlSOS54oyQcQ
p2840
aV6meOW+CHAPlJRd06ANFtXg
p2841
aVqR7EUOrSfx7/uNfphL52RQ
p2842
aVfBZ+LUOTJGB0uaXSWJoy9w
p2843
aVsrlxkO+ZypsTRm3rJoDZrg
p2844
aVheHLTrxKK+4aC+LfTFrjaA
p2845
aV1D2hmOo3keBj+Zpw5rabQQ
p2846
aVAugbsP9gQwF64YqHHb128g
p2847
aVZYxTBHC3YBemMcAEjHJaGA
p2848
aVoh4AiQRsoQPaQetwmSuP1Q
p2849
aVWk7FDo1ntnC0wEzgkZUiiQ
p2850
aVgyLtGhiNFodIr04v8pxZhQ
p2851
aVZ7KezF6TrBWlRtMLjHl3mw
p2852
aVJ0+iFHhHkY3GuZMDuvjL8w
p2853
aVJ6bZBXpd2XbwezgpMLPMng
p2854
aVarrR3gw9I/wFxaNlKUqWaw
p2855
aVVDAmpin6Hb4We+55FBA6NQ
p2856
aV4mVkxlh9h189uiv0Cg1fFQ
p2857
aVVv2KTl5KOQbN792EoUi9Gg
p2858
aVX6Xeg14/JXcJ7EkhZVPleA
p2859
aV1jeAWI0r6VTXXo6F8SKG9Q
p2860
aV6MX3Bg1e7SA6aP9eMVXt6Q
p2861
aV3qRNaywxB0T8ZDEcGcBQog
p2862
aVkVlJZRF1CcK0UP72MtttEA
p2863
aVhAB/FZ+4Jo9G+H6zg02L2A
p2864
aVJM3iOjmM6D+/zsQwF+VDDg
p2865
aVltOo7fb6ap/fnd2GcuLcpQ
p2866
aVfGzgXW5w0XP3S/ZsT9dugQ
p2867
aVprUedWpASwxdesUUS+rLgQ
p2868
aVzkQeJZEJxkI1JNQ3BDLEfg
p2869
aV2YSe19642P++cvfX4rKR4A
p2870
aVihK74WS8CLSqpkiEpZj9/A
p2871
aVFOa0JIi2XQ1hg3I4o0WrhA
p2872
aV8HFWLcaI0X11RPN8idwaeQ
p2873
aV8AJADqyd2027lTgmf28QHw
p2874
aVz/Ohm4Rl61G7XlTfJs60qg
p2875
aVyP1tZPh2MP7yxfeDtX548g
p2876
aVr5JoOPpnyd/NQVKbW/UJVQ
p2877
aV+t3kdDG5BPn8p8yWBf4IqQ
p2878
aVUIQWFs1pDTsyLnLMBhQsUQ
p2879
aVFXxmITxnRDk5LN7kHs2sTA
p2880
aVSk90KzsliQSRaNgVFWZ6jg
p2881
aVQ2XpvY5wYreBrBFhgu10Cw
p2882
aVFOPvNhq6ZHbucNBe3cb/aw
p2883
aVlSdB/iPpw1D7jvp94tiHrQ
p2884
aVt4u10BRp8adpqPEP85rtqQ
p2885
aVdXTvS66AezWwnL7cCK5rwQ
p2886
aVN5x9m+v6A3YqFSp4zL12qA
p2887
aVqjC3VUvg6guyIK+/LPCQIA
p2888
aVeAUz5+Isaq8RGv4FTcrQBg
p2889
aVgK4SoyXZNjcpMVw+b6468Q
p2890
aVF9Gj0AAvi4iwq2UsGGHR1A
p2891
aVrFOLNGOU1kCb2UnChdBMqQ
p2892
aVcHz3Ia3UsKOendxcKbD5cA
p2893
aV9tB9mwjy1GFsfWK+AXtNOw
p2894
aVZ0nHj+AjOKZrnj8PxwyjTQ
p2895
aV+gQ8SX0EGXR3b1wGAOyYIA
p2896
aVadG1Qn0Ot+gtSyTnjsbFig
p2897
aVtDPEMnmeyfVqGP1+O3cXjA
p2898
aVhww3wo2qdpFMAmN51yf8HA
p2899
aVvcGIDc3B1kuqBQfXsRwKhw
p2900
aVojzua2wKLNVmg1vxuxa4kg
p2901
aVMAuoYKt1h64+wPueDNWofA
p2902
aV7n14DcZFOs82rkQ0cemFMQ
p2903
aV+857qT5lJMQpHiZJH+FfTQ
p2904
aVJ4+irtFaN4tesOvvW9zmAQ
p2905
aVSm3vxsqKG91oXCI9prk3zw
p2906
aVUlC5jcC3kxTNGRVY/NzFjQ
p2907
aVUTzo/6yt2/cSwzqhLvhVPw
p2908
aVW3dShsyFStxRgkmzgrTMsQ
p2909
aVQy/OCGjoj8z/t2wxzsAQrA
p2910
aVZrnZRSpMcHfs87X7YdPLiQ
p2911
aVgtDoDzQX6ITl7u+jkQWDRg
p2912
aV1I5GX0VgY3kU3tQmvLl9YQ
p2913
aV2ZIHnzkjEnSvng7zFCrUtg
p2914
aVQCFOw95YZZdAnIu3erxMQA
p2915
aV8ui/FuD2NY3eLaDH2OdJzQ
p2916
aVSRG1zkTKD8On4W6aI1ULkQ
p2917
aVGbHBY5hf1WnINDswiClHow
p2918
aVxdwgw+Gd+TTPS7U1t0OndA
p2919
aVxGmfmWY2g4wFUvcL/ssb1w
p2920
aVIPxoyMR56QivBy50xrGkYA
p2921
aVwGvjQcGZ7QCxgkCCCg7AMg
p2922
aV3BBEtWxJxwS9+NY1WhUA9Q
p2923
aVWIKiLkWkHv2kdFxz3YOiXQ
p2924
aV9/iYQc8jb24vLxqeXhOJyQ
p2925
aVa0MR/lzt3LaT7ZBITSTfew
p2926
aVGT7edUIeF91xLbXX3Tr8Cg
p2927
aVqe0RD1YvxziZyE2NZk2d7w
p2928
aVJ2hRObMcugWdZDUrAdevxg
p2929
aVHkI2BXkCfhs9taqLUsSCPg
p2930
aVHOYhKmb3+inHKW8V51tgdQ
p2931
aVW8t3IIE9KaMxFCSFosgwrw
p2932
aVyUeimp2fnuxrgQmbF+/RPQ
p2933
aVZoj2gdgfc7FqIGbgDOJH0w
p2934
aVm9BB9uTYCofB/aCugB81pA
p2935
aVwcnofHR5K8jTQWhj+Vdg9A
p2936
aVJGseFRbx5n65R005GSMd5A
p2937
aVmfh4VTCm1fs37bCoPEL6JQ
p2938
aVjmoQ/8OHqWfQuyaKr1CPxw
p2939
aVb8V7tS2FZNHf/iZ0C02Ekg
p2940
aVrMP1nH9uWLrTy4yVG8gGUA
p2941
aVe9iaOpsCv/ybIZJEdHANcg
p2942
aVaCU9c3EVkWIJO0wUrzDqiQ
p2943
aVlqpFIJoNlT2CTZx/Zte8fw
p2944
aV/+u9AXBhovRC3h+SRSB6lw
p2945
aV6r8+p7ejfE6C+8CIcNGAFg
p2946
aVi0M6e4hLziPVEtp5Bt8/QQ
p2947
aV1PIwQPbuPCOF3oePkeHuYw
p2948
aVeforo1sQM4K5jBDum3w2TA
p2949
aV5pvjMTm4Wj0YuCmnlO82Dw
p2950
aVZDUMjhDkRvM2ohtlvbIHgA
p2951
aVf7rAgEP2KXfqfEJ56fyVxA
p2952
aVljxq/fV7dx5xwjxMUhwrOA
p2953
aVe1Xz15ZbT19hxVV8oOnwzg
p2954
aVvmMhhlknq5ViGhdk9PVFMw
p2955
aVlJP68TzxvFc83dzfK4wEbg
p2956
aVbXcgFAbEuPK/mXSkIG6AbA
p2957
aVej5mMt7K9GAXs2qAOnsBkQ
p2958
aVqKXmUQ6KYsPPTwatiyZFlw
p2959
aVDF46LBxLqc4TUrZL0CZPlw
p2960
aVMOF2b2wOlOVAqSoRh67f3g
p2961
aVl388RKSrc4vG4lw8yfysBQ
p2962
aVz9jFht2ofBPZZlTZRvmrjQ
p2963
aVNKSKb5/3wHI4HEJugNJLCw
p2964
aVgcdSjmHL7om6HXGgke+N9w
p2965
aViw8CNwyeDCDHKKS7JvnhYQ
p2966
aVSOmCyC+XbRRltaK3+ILSdw
p2967
aVe/USI/aiy+oD1YNAsbogaQ
p2968
aVCRoZguLh34mDa9XCf2BypA
p2969
aVsE6Gf/xWi84eD9b5U9GstA
p2970
aVU9mq6REW4zQwWZZ/uUEFTA
p2971
aVp+hai9l0AfO/53kAX4cjpA
p2972
aVdp+LvA3VBAkHyGneiWTXNA
p2973
aVhM0n53zJJzlQ4FM7r5Wixg
p2974
aVNwfRpW4eUaf7Q3c5IBGUog
p2975
aV6i6nPV2k/PtgQH4da/9LiA
p2976
aVN3FK9aEOFGFes7G5LNTwZQ
p2977
aV7yFIRX1aA94dK2xAeYpcTw
p2978
aV10lXz7QlrB7kiStJilLzdA
p2979
aVWefpLFiYP2sBSBQspSQDNQ
p2980
aVg1+Yc9+0t8D+FXgdycNVHQ
p2981
aVuIEqbK9ruPnfWIiWUgBm5Q
p2982
aVzQVGLxRyMhIbUTc5W4KnuA
p2983
aVUO+aPyKaujmwBU5H+j27qQ
p2984
aV5ec+CO32EFtNq60PAZKUfw
p2985
aV3YPi1/I9KFX8lF3FqnrVHA
p2986
aVG7NOfwG3TvK7LdeJ1CleDg
p2987
aVUNZRGW5I/vOyrKklDLa9iQ
p2988
aV7R1cUakVRAODgYSWslwp3w
p2989
aV+f17IXCwwF4DqHJWLborIQ
p2990
aVlGeWFvIE02QofNSjfNVebg
p2991
aVDGwEyGd3Kmg9NOOabz22eg
p2992
aVGpcWUolEL08qTvpCNfc/JA
p2993
aVcwItP6W5kHjfZ0WSnUTSJA
p2994
aVkKYdRwOhp4oxM/8Fev0SyQ
p2995
aVjnKS2RisAMlO1KDaRkGqZQ
p2996
aVETht7d46IIRBZb5LBCLpVw
p2997
aVrctdQD49u0vvGTmLsOH3NQ
p2998
aVgSPhduQl5HNNDihSGrp9ug
p2999
aV80fEfCORmDBc7hJOXGkVng
p3000
aVZvTvKx1e1h+oq36qCDBR1Q
p3001
aVGu5HivonkoRf8nX5Q2ekbg
p3002
aVSJIxmJs/IkodSy+dimXk0w
p3003
aVYPQim3fzlpQH1va1JOAGaw
p3004
aVAbk3v0DzpIFhX0II1kaM5w
p3005
aVyKXXRiAn/gHEsdXGSIdxTw
p3006
aV1/3He91rr9vH/RHrPXCwrw
p3007
aVvvWadQ1VGD5tIke0I2Cu3g
p3008
aVmAUqpPLW4X+7VcVlvnLT7w
p3009
aVxioamg4vlfTtr+i0YFuBEQ
p3010
aVVUgMf0tFPqJd//O/7qLHKg
p3011
aVbmXmmVEmhhHiRAEuIlh2lw
p3012
aV4fwDiQ3UJvvDI8cQtLtpaw
p3013
aVN5UKnxq+f++XBBpCCKMEmA
p3014
aVMiMarMfTeMU39pt2obBh3A
p3015
aVUZKahBnq0sZVz0r8qGOTbQ
p3016
aVdpuysyVjg5o8joY5e6Ypuw
p3017
aVVuhOcIWy0t4Z71/Jx80MoA
p3018
aV6gbJ1bOPmGTj8lGMNpalqg
p3019
aVziEQs+2Y3ADPIT5sUxv7+Q
p3020
aVLoG/0XQGnniyLnodzF9nyA
p3021
aVKNwK2vvnNlYz+1Mr3Iex3A
p3022
aVLino1zN9NG2cTXR4ZhPAqw
p3023
aVhyNXX8ybH956ZkV4Cu4ENg
p3024
aV4FyteCe3ch4v5RzJludHmg
p3025
aVPj9Dzn3bPlHByo9xMaZrXQ
p3026
aVLUDxVT2zPgBfPqp7c3MAiA
p3027
aVAegOPZLNYjeOXHJ/DKyBPg
p3028
aVwE/B9QpZmWGf/KXBIyya3A
p3029
aVC2DZvkqLeaUkp9r6bVedEQ
p3030
aVDO8rgn31KkgyCUmhQq58OA
p3031
aVvlmsJpJvCWGa7qyPTeIf8g
p3032
aV/ZsDxAiF1yPQsXE7PhNxiQ
p3033
aVRlNBrmT5wQ04Iuob1Ok2OQ
p3034
aVNUUtZV2uH+DuCl2sXme7JA
p3035
aVn7x0Ne3K9PXf657+XBoPaA
p3036
aVmIMmbIs6nWJN+skVbborig
p3037
aV8jz0nrzQ5FCEuFq4mK7GRA
p3038
aVogGQtr3fcQFon7BY0jUVpQ
p3039
aVPtgusfQqsttogld64pQOGw
p3040
aVezuGN0JqaqKhsKmyXxZwSw
p3041
aVeXmt52ick4x58crre856kQ
p3042
aVx9nmtHIY0Ux2Wpx/yjtp4g
p3043
aVxQmmlQKVM9J0ux9uJ8yBmQ
p3044
aVytvtnKXLxDVf9GGsSxPC2w
p3045
aVrhW6Ethz6+RpNHBm+Ldzyw
p3046
aV/0opydo2Z+Cm3WJ5FV1BNg
p3047
aV0tppysxwNAnjGiGg1FQ1kA
p3048
aVjzZcZF1zX6uEU1bDHd6fxg
p3049
aVRWu5taVbkh9x8hZWOmV0qQ
p3050
aVeEvcL3PwVjC8VC/gj46v2w
p3051
aVY7lqt2ijmMPLSlsx8aJ9Pg
p3052
aVaoFwkfSm9f8tNxhA+Z6cEA
p3053
aV/8Ej9fHugODUfFMfjp7lhg
p3054
aVAjzgXgjmGLfGCj4LBiCQuw
p3055
aVENtPq+UKPprk7cYsFIO7rw
p3056
aVkMyA3K8HSa39D5j9IZghpw
p3057
aVhKXQHBQ1KqfmDsUOgyvLOw
p3058
aVuUlJZ5FdoAChQBY8pWz9pw
p3059
aVt79hqDqP3jio9vAojFN/gw
p3060
aVo0FYAojcTuuCUxkT/aMvoA
p3061
aVqiOF3dzFZNqFdJ1QL+0PtQ
p3062
aVg3WIL748p1I75o0ChXFKBw
p3063
aV1WU1Jjg61s1PdVy09QNvIQ
p3064
aVDICZ8bNHKZjjS1ur0w8A4A
p3065
aVdeBoXg+yKGZ1uA1sesAupA
p3066
aVjU6aTOCzWNg43TI5XRHp/g
p3067
aVBd2V745aXYv7nq1zd1YE4A
p3068
aVlIsnwFkV+TtgTzcY808pVA
p3069
aVVkedJBRA0G6xkUy8AQ0wKw
p3070
aVpFPZMKR6Xem0j6KTsPBnRA
p3071
aV7LeG9RcKX5rPHkc7TRkbQQ
p3072
aVC+GNXjxAcLG+xV/sMCSXuQ
p3073
aVuFfTRDHeKKzEhk5RK+y1Ww
p3074
aVR6z12qDeh78apz2RzUrqnA
p3075
aVpqyj7/He5tCodqjVxzXq5A
p3076
aVElWcihLMPTzLJ4+GDU3TNw
p3077
aVF5X4ydCcuJM0prMhXawxRg
p3078
aV5gGTd4pbgU8mbGSHJShE9Q
p3079
aVb3BUD4yMBTwOY+UKLmpn4A
p3080
aVva02k8Tu1hrSTB42CkM6gg
p3081
aVAyVE5hqEAUwQkLfyiwIKoA
p3082
aVT4iMjeZCg2iMYAWHR3Lg2w
p3083
aVQUtmy5CfFpqQBmD5pWbNrQ
p3084
aVWR1UyytXKsckDpD+CkWwng
p3085
aVgAmDzCG0KskgnmBi0vFZvA
p3086
aVUP//Zc420ZTZoMv53/TnSg
p3087
aVVw7A3/AdbX284cfC4mSuVQ
p3088
aV9xGfPAtVlDeuLu65+B0PQQ
p3089
aVrQ02maSaBvP3JjobKeOVzg
p3090
aVgSMsyaV6n/LToFFCEHEFwA
p3091
aVq7DjvrdVSfraOz33YEtI3w
p3092
aVi726yCViaZzsTwrXWH/n2Q
p3093
aVcz772Z5WDHCPg0e5oSq2+A
p3094
aVAFLjT7S2VTqKdvamy7dnNg
p3095
aVAHV8v/0e5jrd7YfF7nArzA
p3096
aVjYC3AZcE9AXMugQraIzGNw
p3097
aVR0Q7ZinTHLE0dcATBtZgLQ
p3098
aV9nkrIpJXJUgZXMfyz2RvOQ
p3099
aVusJ7XMAfrS/5nsbelUL+QA
p3100
aVKHzabsaYIDebyahvDZyhdA
p3101
aVzfQcStQNfOfYWt1DPsb4DQ
p3102
aVHW8L5y2lYFFhn1XI0wvSmw
p3103
aV6x1wliBgi2/0v7AjCkkjlA
p3104
aV9fom6wLFPJ2ZlezFjrPCcQ
p3105
aVt21+FvCK6XoKa/BCxKkTFw
p3106
aVZ1WLEKSa+Z+atJFMRHng3g
p3107
aVPnqbylSN2o3YUxTLYftd8g
p3108
aVf0BHHCNxhFVMrafd/K37UQ
p3109
aVD05Bj7C3wcwcM/mUG3dDcg
p3110
aVxUdl6czFct1vEBWIjPA2NA
p3111
aVLMwN3q8jx+oL0Wf+aXJLsw
p3112
aVRDlQrF3nEK7uweX1otgNkw
p3113
aVVVFEIMhhQPjrgfaNcoBAQw
p3114
aVoZN7Et7+ZX+oTY4GC/PaDw
p3115
aV957TdnEiPE6amuquvOBnxg
p3116
aVewKo/o6k+dGFqzlwPoTpNw
p3117
aVeAjWlGeK3xKpCw/IPmcUMw
p3118
aVU4oARaF6UUdl/lMSjuYC8g
p3119
aVcoMA+JxahGi7fwDqtOR80Q
p3120
aVC/8qAhtZSOMmUb4Ab/Ictg
p3121
aVisCg6+T9JpPBhk5uYiBBVw
p3122
aVZhnHR0Yuo8BeaeL2STSSXg
p3123
aVwG8ha+62Ycj5QohrufYaRQ
p3124
aVvRYw39dACCX/D51+0oQ2bw
p3125
aVNKHFTHJu7aJoZqmL8L16iA
p3126
aVIg6UwdWW6G2ZIElJMGDxRw
p3127
aV69KK2SH1QBhtEWGQc7v90Q
p3128
aVeAERvo8e/nZF+1w1HVGZLA
p3129
aVdJdrFcjjpWK9Ak5xPa8RIA
p3130
aVIyQxiXP/y6dUTBr/LSAEsg
p3131
aVoxCApj2ZFK7OBn39dYE8bA
p3132
aVXigteC0mKBOYp7EO5GNYhQ
p3133
aVS98gKMii2QmH9SCphqO88w
p3134
aVbibzwNh79oPE8eOVd6qKDA
p3135
aVtzyk/KGM4+om83ha2Mk6YQ
p3136
aVPpaAUj7hauZUQtz/uQsoWQ
p3137
aVy2h/ULRSPtZZzhP+WntNSw
p3138
aVWbyFTZtHE6doaricbG4ebg
p3139
aV479LZqS56qjGfx7TDVgsng
p3140
aVwYuju/oft1S04z75Ro9mMg
p3141
aVR/+3pRc64363CZfn3oemRg
p3142
aVgiyaeGLs57Tb7W9Ci0jVzA
p3143
aVs32h30cC3rPhG5FiSCU42g
p3144
aVpbvPI0stNwNAXy/QE1JAXg
p3145
aVUMX2vU4IXFISp5wKWuvkmg
p3146
aVuDE+tWCK+WoyWBxtsmOmpg
p3147
aV2TNPwnJY5j/SpES5sJ2S8Q
p3148
aVlEAU9yNhR15mWFSPev7cUA
p3149
aVhuyOaJ1FmllvnzWUolI3tw
p3150
aVUb5jYIiA1WTW4Vr1wV3Q3A
p3151
aVn6hvOYAO9hwtl0oXOY3LIg
p3152
aVVGeBS9pifrqZ80AUV0fACg
p3153
aVFjiE+pd4REMrLKpwjIwNPg
p3154
aVvsur+BL4m5tP/ZDdMX/gRg
p3155
aVhKCqNDrWnN85+85GcxApsA
p3156
aV5Kh/uBDLudwHaB7uyU1YMQ
p3157
aVY7U2MmNI2l2pzXMHLG6r7A
p3158
aVBMBodsz1RMxA2LbgX0Cr7w
p3159
aVBnHE7j+6ArUXKkf7zZrHWQ
p3160
aVKEemIvS9VYoPBVWDn2aJdw
p3161
aVPJ5fuZ/OyJaETYftvtxGLg
p3162
aVu/mxJyqKM18dJuk2bjd/jg
p3163
aVCtMg/SHWneZwVdfZKKcDAA
p3164
aVt98sop90ivpymsDp7yPD3A
p3165
aVCPH5RQblIZ47R4ZepPY3OA
p3166
aVks7E2wz62rOx+Sn5BIgPnw
p3167
aV3qfxK89+AnKAeOg2/XrDBA
p3168
aV40/d3FD5URcasNJdg6rzJg
p3169
aVqAZsqSwZr1S8GRiHv4MsBA
p3170
aVb0AqJcRpH/PLCChBcOfUYg
p3171
aVdVM76VlZYCnFPgDXcuoC2w
p3172
aVuXvOdjHalFepLRqYllzlvg
p3173
aVOq8AegF43YbY2/EhZcTHGw
p3174
aV8s0MNCNBEiPLYAzpdYEpnQ
p3175
aV/8ud+qYOQwc99p/MxaYxHg
p3176
aV++dpmV3cVMA6syNROARXUQ
p3177
aV2ddHozq/L79Baq8NKrHz3Q
p3178
aVqKQBzifDmqoOHV0S27JYnA
p3179
aVFsZ8+Hi2YrA30HMo6e6VfQ
p3180
aVd/cx3dsbvGM8GUzCW9tePg
p3181
aVEsiVJ8/vWnBtHdBCW2D7Ww
p3182
aVe6Fqn1curVAzXO7VQRigVQ
p3183
aVlJbbrY3aYTgX9b5mFuNZww
p3184
aV1SciKLuwEGQgXNz4gH2yTA
p3185
aVQSQpLhfwa+V2Pq+ECEA1Vw
p3186
aVHku1AHUeMjcVcyn7PoFLhg
p3187
aVVM1j/qVerR1AVCSlYZb27Q
p3188
aV9LMfcUraWFDp7qiU1CllZQ
p3189
aVMgJDT6JbUdifypOFr7vzcw
p3190
aV1It0GAQ0kSqlVzyWsWDHIQ
p3191
aVyyEpskg9YB0HlNC4GD3egw
p3192
aVZwVn8Jj+ZjHpuIBfDO+rjg
p3193
aV8qfjEuskss4hix6lGl2QqQ
p3194
aV7gMpCoUesasJJWECl5TE5A
p3195
aVWb8PjAf6jmFvUoD+ZI5ebA
p3196
aVyaF2pPnOR4qedt5lWbChmw
p3197
aVE4JkWRMk2SrAhVyeVBeunw
p3198
aV0h9iLynkmwwwfccZQga/dg
p3199
aV9cn1hRLPlawQfvO4zstlow
p3200
aVRH5BEaWZ3JjnD2Hu95cCLg
p3201
aVPhUqyMMzBhB3K9F9YHeiLA
p3202
aVUabBb73TQ6UbDMU73R7LZg
p3203
aVb4RuL6ehOu/geJJ5OHV9Xg
p3204
aVqcSAA/b+Qrr8JGDEH5kzUw
p3205
aVkExuS3SxZYRG/oFTl97LzA
p3206
aV+hf+67elIwNFA88b9wwNSA
p3207
aVtheQrek27amtcezAz5Kp1g
p3208
aVi2+WSBfoEc5AkccyzRo9iQ
p3209
aV7XR0FkeaJYyfqniejuHUQA
p3210
aVXr46lmA125xPPw1TxTg/xA
p3211
aVRLsjOSTtJFVEhoiZ8+1fEw
p3212
aV+dmPvTcJIBHKfUGLAfyDjw
p3213
aVP415O8rQfDr+btjbVpVGkg
p3214
aVzHP7yqYOxAKZEkpsIrowOA
p3215
aVarBCTUI2aXycKToB72G5Rw
p3216
aVQyDl199Ut3vH74dUGIY6Tw
p3217
aVtP5g1/5TUAon8hEelR21Dw
p3218
aVbSgnibNWecAmYn65oimCfQ
p3219
aVg6GvXGgs68xm3vjxaFIFXw
p3220
aVCXmZ6uSuQM4XpWlIzrlAcA
p3221
aVzp3eMCKFk6nYbw18etrVug
p3222
aVmYOeg1K/vIZS+tMytRw10g
p3223
aVL4t/lZDRnnvXVO2dchlKTA
p3224
aVEF5GCeArpdDYPfUkkqaMfA
p3225
aVVLY+oPEKCh5f2OXMEwNN1g
p3226
aV/Py4oC07NDKMwR2aGRH32A
p3227
aVRmiSCqX5vDHT5uScRpaJ9g
p3228
aVA+PgOvoVwXvDgRTvp59ECA
p3229
aVTNRsc+hBk0+C1nXRDY/7AQ
p3230
aVkBGuMnn/Rct610s8l5B3AQ
p3231
aVtbEz3t/y8q3L4bYBqIHcww
p3232
aVbunEGabNWJvlNJ15uwY53w
p3233
aVpA6nZ6Ym7EXn46jPKRyn9A
p3234
aVW0xExCs5edw7tt0vXLunHA
p3235
aV4VsRrWas7gyu3TRioChMeA
p3236
aVlzRF8Yo8CDdeH9WUqCW2Bw
p3237
aVl39cB7mO/5XK4RYeJo+yjg
p3238
aVuEbHhy092egmD+YORE9mWg
p3239
aVkyE7FBatF6JpSJiv9TNJBA
p3240
aVH+h757eKWXdMhe6UBGNnBQ
p3241
aVxq4Bc7VpHj//9ZbJTqPJAQ
p3242
aV7IEsQSRHeQkZgLcHv6NgvQ
p3243
aVJbsXFYRdI0ZvynqPe3hwrQ
p3244
aVAYCcEWn0XADzd6axkiYK/g
p3245
aVhtN1EKcQ9n3W5/lPSN23oQ
p3246
aVAYTDkd59BNPHuS7he8qSlQ
p3247
aVNdQiD48pQzgRYIZwlm0aTA
p3248
aVtgdMrZduInqPKj3HbzqPdQ
p3249
aVXQxddoNAD0ocgYUYkFityQ
p3250
aVaLImKpEt6xzTXkgyez0Zvw
p3251
aVFEfd18ICTHtWRtzfrmf06A
p3252
aVZlMmfgxjIRb/Ut4rvsUfyg
p3253
aVMmGqaDdYPhUnTYN45zeNEQ
p3254
aVH8BOQO2LbFmEWWFxF6ALrw
p3255
aV5cIrouAvXFVZIsr+Qowadg
p3256
aVeqBKUg/oONTMQwDLWIzahA
p3257
aVRPgxCRAlmemtwyvKnlalDQ
p3258
aVZqjf7MOGFPEzP1b7a8ZEnA
p3259
aVi7KBghZUBLcuFOViwzAkKA
p3260
aVuB4zeHQCEgoHbapmgBiYOQ
p3261
aVObVwCFDnB5aA2tkO8Tb2Og
p3262
aVph7jPN4ttGAyNQANy1vrLg
p3263
aVPrNkejpiZQ4yBFNzbpFWlg
p3264
aVM34RidnIFnMXJFDZ+s8k9w
p3265
aVyg9PeILACBb4C2EtBPdh6w
p3266
aVpX/V1GfkFSGl6Uxof13dmg
p3267
aVpWLDqCq93+4FEwABFSR/bg
p3268
aV6Qims3zXAhYvyj0fJYA+4w
p3269
aV5G+2QStlH6gp7qtwvl2fCg
p3270
aVF6N3uomiWNdHA51FYp9zbA
p3271
aVUlxXrl2o82SQ8PMSVjMGYQ
p3272
aVfP/mg/OnIgvpw415vldFpg
p3273
aVI1ormljgWklbdA4Jn0Vrtw
p3274
aVzlfAS1zOb88b2uFFpKaHtQ
p3275
aVD349ibaQPCHK2sz5DLUXfA
p3276
aVwO58U7jjJ5CBxUorbOiGqg
p3277
aVvPYjBSuv/ooISQF0mat02g
p3278
aV7Y4pNJUvnzKPyPszb95huQ
p3279
aVvQRD4m0VUB9J5EuJwlZxuA
p3280
aVT+rJ60IIcK2ofUL5AA/roA
p3281
aVEXufRTmTfQEnKZU2aUTyig
p3282
aVoaS7gNYF+GevLQGCyna5nw
p3283
aVR0IM3ToprbjQk32Z+e+9Tg
p3284
aVx6qV+lrnmiTa4qESTABGJQ
p3285
aVxpnHtxQvvK0pAcM+sJ05fg
p3286
aVvntVjcDIY3AeqJ5n2w5xcg
p3287
aVBAHddnlIHhw9iRRjGmuwZQ
p3288
aVdpPjPUrmdymGsDQ83AFwBw
p3289
aVnat21MNIAc+XmYqBgnek0Q
p3290
aVRSyJD+g7VjiwNa0tDnnjSg
p3291
aVwOdWnwzvQhibIXsjk+kBjg
p3292
aVZsCvaXGvJVeBwT6Beui+tg
p3293
aVgqoOPxptpcIEJV7aBi7lig
p3294
aV8cmqBf8pFS0aWT5uWUZG1A
p3295
aVPvAg77TyUWwRv2QWif+IFA
p3296
aV1gqfQUUHmdflBIRGKKBPsA
p3297
aVhtVJa7wUtgXauiWafdGoGQ
p3298
aVADaNKwiiNhq9l31qObSsvQ
p3299
aVw21+kT2tqmAkk8Y1Z04nyA
p3300
aV3he8PJXORUxmC6vQV03I6A
p3301
aVjNtPTojLYdJuua8df3c8kw
p3302
aVi46ra2mHFKrq+HBIwz1g3A
p3303
aVCU7L6nh33YKijjhSK8C3Jg
p3304
aVh/8uppK9DI2wJAHqniw9eg
p3305
aVvWirotZPsR28sPKe3XQdfg
p3306
aVWtO1frpTuNFx46h9CEFskg
p3307
aV16756
p3308
aV1geq/CNwdkKeY5ZWC3FZHA
p3309
aVEZXFhLN3QGGB0C/i6tRpRA
p3310
aVvdkV5ip/FJ+2wBy7GWcEbQ
p3311
aVX8kIyASMONkDxgyID5PjWA
p3312
aVqdnzODtOSUe0UJQbD/+5Vw
p3313
aVIrpYImSLG0DovFrwgewdFQ
p3314
aVUoa0P0IBLcIn6Inpj4RWYA
p3315
aVhRFclrvQ91W3wBobWBR/2Q
p3316
aV7Ux1moVJJr8cPJ6HMaYRHg
p3317
aV3j4SdK1sp2As85kO3HhZ7A
p3318
aVe5df+yNXWas5K7P7v3WaUQ
p3319
aVjm/cXFwpRQ1Mm5gKISlKwA
p3320
aVQlmv1b3IQ+uCRabRNBIc1Q
p3321
aVnTrZv0Iiqad9PSziy5DFAg
p3322
aVzfkLjzIUIm4hpdCu5ZO5/Q
p3323
aVSawA7WjecwpPtVwclAuGqw
p3324
aVPU2rlkcJC/O2IjKdtVdoFw
p3325
aVgUzaEFofc2lUycfezCEUlA
p3326
aVttoADHGfCIyetBEz6v2J8A
p3327
aV5e2CK4Z2Hx0phJHxsjqXQA
p3328
aV9xHWORT7Y3oWD+PKFkJrMg
p3329
aV7eNk34me+dYkY8jOxQzbbA
p3330
aVA6QTCP/tCVBEv+YjXPS9Bg
p3331
aVEVzRhMLEd38zj5gBgqJ7fg
p3332
aVTR8zCHktSZp0ZXDETdAfWw
p3333
aVNjgwSJeqE71KUUuqqRA+qg
p3334
aVuba5Dof5lDjb9AlgRawNAA
p3335
aVsWcD4YX79Kt7hiO1LyqghQ
p3336
aVqGs5Rk6BZozudKoI4lqpyw
p3337
aV2jt/Ua6yeq7I+FHUnIFKGA
p3338
aVB8Hv7tfeBrQbjYNC1ByaOg
p3339
aVBj1BXowPKcMfdTZR4NpziA
p3340
aVCjx5aUtkqPiRLAfv97iETA
p3341
aVat3+xs+AN3rXF8CnbbGDeg
p3342
aV0FRb2TSChCBwbKFBTwaa3w
p3343
aVQ4tv08m1w+4neZo9t27+ww
p3344
aVf+IchYFimZ9nmSlbLDAubA
p3345
aVU/n8gE506m246cBZ2oZPqg
p3346
aVEBgkKkz0bDQCqifPBx/42Q
p3347
aVa4n0vyqYfMdqaO0hmViEtQ
p3348
aVXT4bOIsWoAdtADfY1sjIyQ
p3349
aVEWSQXbMBEqcHxsbxH7rQmw
p3350
aV/OEADuPaXxc30Uasfn8Ctw
p3351
aVOV1Cy5g8yAkQrtUnpkZ3Hg
p3352
aVRRRCr4DY4DhF2prikgUbtg
p3353
aVae67BmoftyfmBLPbZFnONw
p3354
aVACK2362t+Vkt3aNYPnGmXw
p3355
aVbgzZcoYCF/5UJHsNswmV/Q
p3356
aVgj/sDlr1EewqNmLX2zQbaA
p3357
aVUV8r7hCF6uNTCIO0Hesv/Q
p3358
aVRYepban/VpPo42AolMP0oA
p3359
aVHJJxB8H7YOHTP/8EiKstYA
p3360
aVsVW74BopbZGW8NdXuZGIvQ
p3361
aVfHNl9IHLAfqTVS/Uq0UGFw
p3362
aVnG9TAHnvqJqzyjQ+wf82pg
p3363
aVv5ejeieujfvDzw7eRfDY7g
p3364
aVeP+Yz7AvrKmeGSylNDWWug
p3365
aVxTfBoN4oqJR/3CW6cKcK8Q
p3366
aV8iq2xJRGYTST/ib9BAjYKw
p3367
aVCslCVz7WhO0DZJgRHlIhqQ
p3368
aVw86SPYa8vXgIWrTaebkjjw
p3369
aVY1s8yVbBTR5fQyWPdjrcHg
p3370
aVGSgLtFh0Ih+X7bL79c20Mw
p3371
aVj3AUpNHOCbShuhS4GbtIwg
p3372
aVdULbLQ2tK8I0BecatlgjMg
p3373
aVTZXr1tyMzAbOv7QRnn72/w
p3374
aVMhpn8aSfVOtAKtuNN5Ak3w
p3375
aV8QxWgJ58bP4plE97XGVUBA
p3376
aV2PeYkj86yNQ3i4AcvPkZJA
p3377
aV9F68KYMGeftst3V6v7nejw
p3378
aVFLfeKIfTtJ9iBRmgaoepkQ
p3379
aVG4zk1VBuUOERjHs76o0J8A
p3380
aVh7udftelvNrhQoX+LQLLSQ
p3381
aVxq/q8UOPUaj/ZNhuWhdDdA
p3382
aViHBAcbpB0QQ6GA32cj4lZg
p3383
aV82scM7xT/IhbLsZb17Pr9Q
p3384
aVv6UFUdt1hZqoYMYGDzEYjg
p3385
aVv8k0zw4FMKuTlXpnrhE2nA
p3386
aVZF6jMdJBGrtg4ci5bXOMVg
p3387
aVZ7E7mM/rceG1JSqx/Lqhhg
p3388
aVdCUip69YDnTGs/o8WPLMVA
p3389
aVzQGflUkhYgQd9DFY/gSrOQ
p3390
aVYJMEhBM4C5hW0uxtBYUnKg
p3391
aVRgdFQ1UdU0xK7kBEcOz1Gg
p3392
aVz54FUlvBYWEjhKLCOIvXjA
p3393
aVfCZ+kv+7x+J/CxOODPCn1g
p3394
aVVRjq7+P3X29j14MqA67xSQ
p3395
aV5b2BnvRkaOtN5STuxBsWjw
p3396
aVQX/rCyBg0COTjW0/6GC7/g
p3397
aVBGdtH07jv8FN9PGJZmnJDQ
p3398
aVGa4nLjbXWOp+RvIPu1VksQ
p3399
aV5QbGWV+V6yxgRK17YY5Oxw
p3400
aVBIKFfnQvyn9+ELM5Qjumew
p3401
aVK5ojNiAMuqaunlUgk4+ejg
p3402
aVqoIZizyRrSWFhTV7ehXVnw
p3403
aVBMx24eJJSusFqYCXFZYHbg
p3404
aVttGuzJu+NeEzpCF6KLPv1Q
p3405
aVqxg82XBgu3sBAg+WXlYuaA
p3406
aV8GJtoRA+jaJ4/uNNBs7GuQ
p3407
aVL4JGlUhw378OCViC5f/Kmg
p3408
aVBH1UxGrVcORHIfdkRErLxQ
p3409
aVtIX1h90p9YoKCc23XV2PzA
p3410
aVaTAFzqqXx0CJEGMtw2DVTw
p3411
aVRwwR3m8wP4lwB7VfwONezw
p3412
aVrapA2Hu0cImKFVxnhTaCsg
p3413
aVZB/vlHlrpCWzRXANeC2XRQ
p3414
aVhTq4H5OVywFzf6Mg8wugrA
p3415
aVDmRC72y0G7uuJNAkwNTVSQ
p3416
aVOzOuv2J144clMHBrwabuTg
p3417
aVPkW3e/eo5bh2/LW1WUwVqw
p3418
aVawV+OCA4HUfZSKfc/K/6lQ
p3419
aVeeB4pQu6ouVUbqGO0TXAHg
p3420
aVLWq7TCyXM3cXvbNMu1wMkQ
p3421
aVN99YrqQRl8dJ3eDbt7qc4w
p3422
aVoEMNrKgyyIUxwpeiJvNU6Q
p3423
aVJ/b9fqDpginJYct214PluA
p3424
aV8O4Lipe5kXecrNNNeXPq3A
p3425
aVZGCHNcAbrD8KkeuqNwRiHw
p3426
aVSBBOh65f25kHMkHUpjrQ5w
p3427
aV4rCpYNJA2TXafADo6kvjHw
p3428
aVdfC1MNd0fkkhOTvs8MxwVw
p3429
aVJ5dtV1IEJ0DLeS61zKD3OA
p3430
aV3hjmv0fEksPwYhfbiDlWmg
p3431
aVUfMGTzR/XuaNHLl5wqH3fw
p3432
aVEvfQpceKjvXedyNFgS5dtg
p3433
aVWon7dvmeCDfU6aUwfKDUHw
p3434
aVqrXamR+ZH8n87MPELkyoOA
p3435
aV38PgRnPHqYKny0XmQV2XFQ
p3436
aVU2TE6mQuZmcgVEMqAskg2w
p3437
aV1073739410416
p3438
aVw6sgzB3/qU+wLO2fTPwm4Q
p3439
aVRCV20va/ZLlaWh+XFdQgQg
p3440
aVjO2pVTymHlCZohB/LL5R8A
p3441
aV8w2Ob8IdSHY6cJa7xK6HoQ
p3442
aV4QR1zWmxPV8vQglld0sv9A
p3443
aVfQh8A1mNLbjWb+jmWo2eNg
p3444
aVaoVUYIWyRXQDMcSUMoRdYQ
p3445
aV/ExGdtKdmQ5SvTSEhJgHwA
p3446
aV7AVCJTJNtaVFYFA+mseIpA
p3447
aVw510D+24K2jOLds3x+joAg
p3448
aVLGXaevHxq6NH0qRj4oesZA
p3449
aVDb8A4S+Mg/4JIYonWjmGAQ
p3450
aVpjtGieST6vL82oUoXojrNQ
p3451
aVoSmk+XXCwPH1fPF8H7NHUQ
p3452
aVAgovZVBW5ba/nn+pvhOZ1g
p3453
aV/G1yUUnfuUZxgOmH5k3fgQ
p3454
aVmYyfwqfleZpc87Qk+Yb+TQ
p3455
aVRCXMqEJtH9g336c5bTNE/g
p3456
aVRsSGTFITIH1s/cSS8sIbEw
p3457
aVeaw30WWKfb8ukzmD1tkC5A
p3458
aVxy2MQKoHoCZZIudmw8Xbow
p3459
aVG2vFsYCG8s5fliNZJuuJjw
p3460
aVHZHjcGESnRXoIctnrcvUYQ
p3461
aVDNPeHEd2GuM+bGADNmPhXg
p3462
aVkxciB1b2u2OBxse+FKzSyQ
p3463
aVxpxJ9oJtkw37RlGvLWTJ4g
p3464
aVDjbINdavkpZOv5mtQRuiZw
p3465
aVPekXJITR4WfxuE1oWi2q6A
p3466
aVrGCuEL/tbHl6k6ZVFU4gVw
p3467
aVikIRyp9XtLj8mlzN6ybxMA
p3468
aVOgZ2wSfBwOPAZJIZQBYMpQ
p3469
aV3cQWYs6Ypy1A3Kvdl3vU6w
p3470
aVpXh2uo08PSw3H5u0Q90dig
p3471
aVX4svOjyS99HyINheqU1YKw
p3472
aVYN5NYx4GrQv8JpsIhC4+6g
p3473
aV2mZz2GJ8zuOged+x0EtlcA
p3474
aVt0UpPLomXU58Q/758kFCCg
p3475
aVxm318mvZpP1UETJeMrZOJA
p3476
aVdJeEn5DpyQpZSEvziUWvgA
p3477
aVN5fA6kA1qGlY/47rDi9vOw
p3478
aVZFAhedXzVqGotnLAL0jxAg
p3479
aVJi9ofPlRzeRMhO7V154eKg
p3480
aVvmbqgH7N3TdjjlU8Q7N8xg
p3481
aVylCuZ0CAyl71M2D2IXb8aw
p3482
aV/Je7Lsyz8QgKgmdiJXTGAg
p3483
aVdsydj11iB3RsCbuDWIo8sA
p3484
aVpcHxsR/bl3OQL9Dev4qDlw
p3485
aVJVjYSO9rMk7nC+oIqojvxQ
p3486
aVcONS5pe/sIHeH+yY9GigZg
p3487
aVsSrWnsHFgdsNOX054dc7pg
p3488
aVDiWAD0AF+E+e+432KcbRNA
p3489
aV7YrvHB/xcA1+ChdYgsYgsw
p3490
aVzHjBQ8tMEaseUrUbyvvT4g
p3491
aVpHxttIYL5s3B9oGjXJiejg
p3492
aVIOU3d9w5hoN1aK9gEzVQ4g
p3493
aVcQq7PnB/25xxKKJsIuP1cQ
p3494
aVO71rt8caYK+mjUNhoaVXpQ
p3495
aVry7+s4Qh5J6Dqm31UGITWw
p3496
aVpYUqnHVhbtE/s57Rdngbfg
p3497
aVjbANpBvPLuqP4NZfmhkbmw
p3498
aVTWbvRvNnLokj3Qjh6FU/Gw
p3499
aV1q0rTS4cYmk6Vbb3s/lrNA
p3500
aVvGCE4NuNfJIIWJxnC6iVdQ
p3501
aVGwDv/gH7B1i7wsWdqiii+g
p3502
aVRt6GxMoW3Kjq0dgnbZkq8A
p3503
aVVd1GKStAm60EhuZUXF+Qfg
p3504
aVx++LlZFyfFUjwuskX3VnQA
p3505
aV3RBzKY5hoSARq7xAtXyIug
p3506
aVEJIoRfTXCEwNhc9bY5xzFg
p3507
aVgMlidW0DW7jrf4GXXQ9rdQ
p3508
aVHGXM8eBwtZuXjfadjbV21w
p3509
aVOLY3njcQyUpkLPcTUqA2Ig
p3510
aVSz3x70CdsniTtq/5EGTksQ
p3511
aVxbJclupfSzsFwnhI6XWCLw
p3512
aVmt5P6RFmkI4AkoZoCYvyyw
p3513
aVi9v9y6pHU1p4t5POuM+/TQ
p3514
aV+IoUkQT+zPz8j3q9Q0NsqQ
p3515
aVIGOcd690z0imNwwMD+EeYQ
p3516
aV4gJ/zzbiY0PM3fpOy8ijKg
p3517
aVC3S4udZ40dAp7T8+OLTFzA
p3518
aV3EA9QYFUt9qtTlUYPg56jw
p3519
aV2nDTPWG1IPB2UOMytXDjSw
p3520
aVIS235LCVv/40k5N9NtuiHw
p3521
aVc5qW/2cTVoIDGQao+2vBwA
p3522
aVap9dDVyY3oT4qb5Q3Uf1UQ
p3523
aVCwQJZfSvFbvCc5nDY/223A
p3524
aV3cZQHsbRU2fANpT+cJrF4Q
p3525
aVlopWX+MNj15OC5tGwzPUZQ
p3526
aVDMPaPq/0VgkUlizYskE38A
p3527
aV7UMWp9LYV/jRp2xl0e0gmA
p3528
aV7Oy/KF7okg+GFErFWDj1WA
p3529
aVLe8bIOncS+zGhDX2tAkABw
p3530
aVfW476tQhkw0Nz1dzrIMi5Q
p3531
aVvOP76oZjYYA1yUIkzgF9DA
p3532
aVXrM1XlN29RxmLx3oZHhG0w
p3533
aVRCm8SLWJODJD5HkFO4cLww
p3534
aVC/YkOCsbob0uh2zJWvvRCw
p3535
aVRjWr+Jve/crMUzl44k6+Cw
p3536
aVgluZ2+MJORtkOlxFkeGKOw
p3537
aVyovjFUOXp+qLTMnFubqpFQ
p3538
aVjZGZNARFDf6SkrB4AsYF7Q
p3539
aVSXY9hJnBOPHU9idc3MCI8g
p3540
aVeRfO4NGMv3ZfIF+6lelR9Q
p3541
aVoArTUPZ2LFCo3+dZjZQu3Q
p3542
aV1JxYju21Ysjtiggcnd0kyQ
p3543
aVDdwLUFwoZWBHfyux93y71A
p3544
aVlIx4k4hItur7x52Uw2vEWg
p3545
aV3FNbNuPNvCjcxz/FuVVlyQ
p3546
aV4+hbIWbLXJT8B0FPrYo1ig
p3547
aV2/BS68DIlmXLv2unkYMPpw
p3548
aVfTlKdxVxqP4Sxvpb7X+zVA
p3549
aV+T+q8vjQfxiE/vJP2MzMuw
p3550
aV6ET8+JnjYVjmnenKxSrw1g
p3551
aVvCvro5OmMi2KmzdnfwpwmA
p3552
aVSOYAQQxpJasj/yj65nbFxg
p3553
aViooy8ifx8aTojgfzFiQfRA
p3554
aV2SMvT9n84wqnPGNLy+iYGQ
p3555
aVBc/GiC55f7zCtQkHe/XPtQ
p3556
aV97NJT0/z2vBWbP6Yxhm46g
p3557
aVHWkRkO9H5holfAaD6sscMQ
p3558
aVVSexdNgH90FdJft7aEXBJQ
p3559
aVIwJ3ChTJXbEAcIMCPLbEPg
p3560
aVfTTDDF55XnNThUyJFEKMjQ
p3561
aV61ANvhhcky/ieg9wdkqksA
p3562
aVLv1P4e5VOi9iExeiT6yu4w
p3563
aVcNDEpcrQY1yQqKiKEX6rEA
p3564
aVbmlV9H4qUHxhQR4aXDtXGQ
p3565
aVz18rxCgw39qGKfFzHeUuVA
p3566
aVzCE+wo1ykfdFJuFw/unDmQ
p3567
aVsliH56lAAz+vJzPsTjlzIg
p3568
aVe3uQhflD26gn8FbHpjAB/Q
p3569
aV17W3md6OephlGAzxdE2h4Q
p3570
aVIpn9t9dueD0jj6nJw/a/wQ
p3571
aVhG9vtEaNnv9b5MzS6E0g3A
p3572
aV20116
p3573
aV5R/O1GZK/C8FqVNF7CYHTQ
p3574
aV3dguakvDkqhnItlR5/0mmQ
p3575
aVPl8QbhlcBpt8XIV270t/IA
p3576
aV54x+4GlhaKHIs1IO3I+MhA
p3577
aVIRXi/z1bcZQcl1CvwumcdQ
p3578
aVU2OTiegJNFuEMXiKDGGK9g
p3579
aVi9P48IZ+PYYrTOiKqx6sMw
p3580
aV+jE3VGAx2H1IIGDl+bcsgw
p3581
aVpJcD8uHOUbTMkq+zyNnjag
p3582
aVukX90a592Wy4ieDHQYubpw
p3583
aV9RnkqsDo883AuGfc9MJB3Q
p3584
aVj7Mm27m2Nja5Hu7GHuSjEw
p3585
aV8zwlEeG2OhI9LVglwL6ddw
p3586
aVyoTu4x5a7kKHwdt3gSe3lA
p3587
aVFsR0h1F69PI49mQa+dAA9g
p3588
aVidGmuSKtwuPoKEpPpr+gzg
p3589
aVYtu3Q0ay82gcgbgrayt6Fg
p3590
aV9DhpGbaizCReXM48adpLCw
p3591
aVdtGDCyMktd2vmVIWhpIXbg
p3592
aV6BkBlsfWqbJSQMtzIek8oQ
p3593
aVdlCNo8Ez4NtOEyG/BsOmfA
p3594
aVDdYt9O93aLl3XboT1BK3HQ
p3595
aVGJJ/wegbgiY04WDEFjcY1A
p3596
aVudLww2T2AbhA4JtZv/rNEQ
p3597
aVlFKSevEUIPrOJ7v5VttfWg
p3598
aV0Sw64bseE6gbrXbrcaJLXw
p3599
aV2KnpcZ9MDcmCHDHlb8W2nw
p3600
aVeZB12VQ1S0ZunbPEeH6uGg
p3601
aV8i0ea9vttTFjbGVXqC64ow
p3602
aVdUUu0M840I7q3HgPhiQN1A
p3603
aVk4aZ3HK2D1enH3AEIPzjjQ
p3604
aVka/uJuyntvU22XUo+6hAdQ
p3605
aVVncGB16uaATFg6eNkkQ8lg
p3606
aVe0S2T57JuvrjeTjtpFyflg
p3607
aVI3Q2MA0CbaC4zH9a4KrbqA
p3608
aVIwBW+TVTaasdJLL29QEOZw
p3609
aVSYP3fiy+WIegALP+Vbrszg
p3610
aVH5+n7bQwLzXXGcq1Cer0oA
p3611
aV9pluxl7TInyccg7QUrpiMg
p3612
aVaAn9Ksb8hb2064x2Uj/oug
p3613
aVQy789jg1BFbJ/JMco1N9oA
p3614
aVu9rLk+rMElaOaHdlOkSeeQ
p3615
aVvGdBvMTFoJMNHhyEfYX66Q
p3616
aVbrVEcqgw1WsYp3QJxzBSFw
p3617
aVFTKu/OEc944qYaOuQy5M1Q
p3618
aVVO2W0tbxxPWiGgUCORgwkA
p3619
aVjCqR7Bw3KBv/UnXzYm/rFQ
p3620
aVCPY6bwAYj7FkwU/gOcn7Nw
p3621
aV5/44YZyJFDTChAt2/CqvuA
p3622
aVgGwvaTEI80I9i3whsh9RKA
p3623
aVIOI1EH8LF70pLRSlhsOudw
p3624
aV4YfJJN5adEmeCBO1KW/mCA
p3625
aVaqXcR78NvmVlu5fHD1NIAg
p3626
aVuInpgOYCbQyJJvaD2CjUGw
p3627
aV63qkxtyRiDF1M/T6v8oEXA
p3628
aVLs2nv9Ik+badjCfyUCMSkg
p3629
aV1dzvcADyJA13cVrt/ugxcQ
p3630
aVm8sCgRhb4hxJY0hNst4YBw
p3631
aVzky7oqIrcFInzf9JA/x1wQ
p3632
aVm5Scf0SA0yixqGWwWRC15A
p3633
aV0XckfzVLxCkaSDqu966SaA
p3634
aVRUjPwAaxdSq6Z76VI595JQ
p3635
aVwqw1oMuuv9JxsKdyMYB4iA
p3636
aV4z5o7MJMDVBb+4cNDtXfsg
p3637
aV8lVYHWzagJ3XXLVDLMpn9Q
p3638
aVDejKfdeL/Sihhuk/iGHVnA
p3639
aVF2mes1ikrfZdpVBVQDRj1Q
p3640
aVX90rNr7wYB9F16SAvajgcw
p3641
aVQdjHqyiXfeUd+eJVm7RYpw
p3642
aVHwfqCdOXDqgtfc40soBhow
p3643
aVWyT8WX6v++7ZPB8e/48dOg
p3644
aVcKa7CiVurZDAZBcDEWyU5A
p3645
aVemkZhOhUot7/gO+xLvPkQw
p3646
aVwH70ur3SgXcEUTKuVnOlYw
p3647
aV6jrlSb3V5/QiCz21mqSSKw
p3648
aVNp6GW6okju6pm477SCu7wQ
p3649
aVKladkRKgDvInkbXhZNRzSg
p3650
aVssdOBWc4l9Wh1z1Wgt7nyg
p3651
aVSMd3NnqZSHaQMh1Q6Oh3YA
p3652
aViNiY4t18Mr/xWMji47aibg
p3653
aV5EBaOilBob0SsbwO9/obPQ
p3654
aV1uUkusMB2vm81CfytDEv+g
p3655
aVIRMjAwuLYKvUi+z86ekgvw
p3656
aVMLDhKYszHnHyHfOTkR7nwg
p3657
aV8H7bzofJGjNp/DRgzz9V6g
p3658
aVX42umT4/rjX+A2hIfctmdA
p3659
aVN/FcP4HpHnCkWA89beiQGQ
p3660
aVI+DFmSMoIWJ/Rz7E0eXi5g
p3661
aVMJF2oRw6zUqC+mtait4ERA
p3662
aV/vY1jvcS7FIfZF3SFLCSEw
p3663
aVGhBzEDPQe+ZYXeXenHxuSA
p3664
aV0+o1WbcSXmQ26p4s384TMA
p3665
aVzVu5l/L9A0ksP1yLG5xNUw
p3666
aVZTmQFPYvhrGv5tU9q8zEJQ
p3667
aVUeVcA4roplA2qinpy003lA
p3668
aVzCuIj2hyilUBiok9a9xUxQ
p3669
aVYgdyZOqVKbTl0xjBXc1PJQ
p3670
aVdKVHqvigaVWHxGE72iml2Q
p3671
aV+smRtOJiXwCm7GkVF2oluA
p3672
aVuNwUQNblwMiVQUCwoLgadw
p3673
aVPEvMb5SPBGNfP7+P6CridQ
p3674
aVUz0MBJgsK3S1APFpt5GfYg
p3675
aVj8pOab6PmoFy6lOiKi+B5A
p3676
aVR8H4h8uCxC93SwPZuYOkoA
p3677
aVPsP+pm+kPph3Qp6G0SQSug
p3678
aVROLP6S9kaoxp9w2XBSEfig
p3679
aVI9KlpdCeaXl+ak3nOvUssQ
p3680
aVDJ2MuKiaG1jV33fX+3Nf7A
p3681
aVwaen/x01q3dyHoOMs+1Xrg
p3682
aVv3t+gnCLOGgIjf5GzhPwDg
p3683
aVEXqXxqcwdAUfYjyy+EN99Q
p3684
aVnjy9MsXU0nMUkWukma3tLQ
p3685
aVeSqW4fMBdss37OiIwpT/vA
p3686
aVxQ8XMAYfopOy7poYXc5Org
p3687
aVOoa4TThVmcZQgMR2al0A9g
p3688
aV8Gs8Vd5srgqGXYIGRwHnkQ
p3689
aV1QJE04+WJ6cRCaMyyTl5xQ
p3690
aVJgMUYfxREw9C9vLqnREX1g
p3691
aVzhfR2tbWTWKYV6j7qbDIZg
p3692
aV+PBbr/UHvlFRGVZ4X8gJlg
p3693
aVnFVQiwDuUemislVGeBz2Qw
p3694
aVIOLClSTfZVTzDAhzqccrkQ
p3695
aV1a3GdzE74p9gcDETM+Tw6A
p3696
aVvl15SyzYe15io359oSfckA
p3697
aVA4m/sdpfd2/+9mBwk2HHmA
p3698
aV3TdQdSdxgmbrJivcRiAqwg
p3699
aV15ipipwkHH8WLWH4bg6Z4A
p3700
aVLt384FxgCagI91feUExIig
p3701
aVlPSMkYhMJmORX2tgtLY+3w
p3702
aVrJ3ColagaPAZ+KJ0Rb26zg
p3703
aVg93ZE6BmOKqO188/5p3MdA
p3704
aVa0ezkBk3pTheCyqojlD8Ng
p3705
aVvcqA4fCNUebCfonCiSENqQ
p3706
aVPbjU/gkJKraZFa29Ef+Jww
p3707
aVy3BIUcF2yeo2U9lWPitTBQ
p3708
aV/X4r65H4LKDfzanz4glXvg
p3709
aVNjwKa8BmaaI6q5YJgb8/4w
p3710
aVBEjeRb8ZlBTaha9e4EW4lw
p3711
aVfDagd+4Zm2FdnR78X0YzlQ
p3712
aVP969/fKY5xozJesTHHtZWw
p3713
aVoUXARFLsSOCDW6l++bAWvA
p3714
aVGr0Ynd8K6LRAF5C92gMvWw
p3715
aVBZp0g3CH7WX0JT9yPwULAw
p3716
aVkwyUWVu5qvln+t3i/7GshA
p3717
aVA40Uzppx0t5ScPTOOvXNlA
p3718
aV1XVSVppZcJxvf5vDdbLoUQ
p3719
aVnAZdKlHmNlHoC1wUfkJwEw
p3720
aVLvL3waSFifDGDqft0TpP+A
p3721
aVVcDZxnAcQ1JA3wZn80ihKA
p3722
aVtvVre38X+rkf+eEcHkt98A
p3723
aVYQvpg1W4eri42mX0vqiDbg
p3724
aVvh7MVBXL8kLpTRDM8JAHKw
p3725
aV3FhqruMvXbp5CvRinZ4sKQ
p3726
aV8/rxn1/J35pmIZrQoRdOzA
p3727
aVEDMjKlyEpZt1v2jo1elzgg
p3728
aV0yeTjGz/BUymTz73bRGlaQ
p3729
aVMsklj9LnoEolnH1NMuU50w
p3730
aVnjxELyqPCq8tcEv8n8id3Q
p3731
aViUIPB6umC2RM1axzHyR+Lg
p3732
aVPa3kWtXaCclKcbsP0hWz+w
p3733
aVn1eIctDDWBp4RqvlFxwBQQ
p3734
aVtj9yeNGWeQRdY2J9ZIfrLQ
p3735
aV0opyxRT354yE5PWanIzb+A
p3736
aVKN6cQrShr47ZKntIO7cRTw
p3737
aVhkNOttYhXrWMv+1v1HO6lA
p3738
aVf25TSI+VhJA1DWn1+TQYQQ
p3739
aVHcb88BvTUbfDO9K/kbTY2g
p3740
aV7GBKtNI3XgWVy8DhG1+27w
p3741
aVCyleavVuhbIcHd9PIhDyFg
p3742
aV4jY0QaqiIlGXFozRfUM5/Q
p3743
aVngdV5Y3Xe3gHHpM5/mzfJQ
p3744
aVzneTEz3WzNMlBfJ85sukhw
p3745
aVJJv3Sx/J/JHhou0MqL6WNg
p3746
aVuYB5srmVzNUSa6qRkjOY6Q
p3747
aVmlybjoUL/vZqAotG4smAcA
p3748
aVzQM8RbBTvnWGtBZfvTvRYg
p3749
aVqD7U48E6Em2chdG7vCFu+g
p3750
aViGgq946etlowvvG/q8Z2oQ
p3751
aVfsTbOM8lJEFEIFORXQf+JQ
p3752
aVGAIDFuycjHC9VmGCR3sg4Q
p3753
aVrVm9alEueyXSD1tACLNiZg
p3754
aV2Ez5c6bXau0gBfNkgjka6w
p3755
aVGLp3XrWdTYyAl1DPTNlrUQ
p3756
aVBwWf0dEikSW2eYF4pWv/bg
p3757
aV6P/dowZzY6HEor49T7f79Q
p3758
aVKrtHKEx22GDiwC401azy/w
p3759
aVlYc8PPxzsPljX6IapV4IeQ
p3760
aVFoNUJEAa8vT32QxUla2lZw
p3761
aVjZE4IJBx/Da6vxCJslZeJw
p3762
aVttncKWaHPEAv9S8VmfX+Qg
p3763
aVDrPiUIqbwbr9cEXkNk7R4Q
p3764
aVO1I30RHh6sfcel7Pn2oc3w
p3765
aVjGh1bDTMDDDDjDvTE84PHQ
p3766
aVWcahu6Yh4PxiFGoEFbA71A
p3767
aVtibaHUcZNJ2HqKK3alCzRA
p3768
aV4HVpZiErU/AVMMWUfA7o/g
p3769
aVD18NuFTpoo+3i1Dl4+zFVw
p3770
aVAGnrN7oEcL7KK1l+O8VcxA
p3771
aVPaJtMXEL5Q6uYWk6WvRL3g
p3772
aVvJXqbolPhSYLJPrdyhn5PQ
p3773
aV8X5Md2GKN0j7bk1y74aC+Q
p3774
aVIOnGXp/NnXjE9JRpWgfiVw
p3775
aVbByL/prHjxPxqAyV3szpBw
p3776
aV2sYwdXuAXBgLWvTS4sMr/Q
p3777
aVCN8njzPOL23bn0/W/qAZEg
p3778
aVUKuEmnfdKFhPDh6HJXsz3A
p3779
aVjSsXuEoKZffgTixzZ4aiPQ
p3780
aVcLtumGNZCpvus992fzNtDQ
p3781
aVRh+fuyY6n2mMMoBv6PNCsQ
p3782
aVAl9DvfLBoVo7um8qhHMF6w
p3783
aV54mXB/wi79LyNMWxfkc3TQ
p3784
aVTYn5nqCmdFvcAhxlL3lIdA
p3785
aV6gUMysoG0T7kWteSbFx0ng
p3786
aVCgGwc8YEfQSGAWGFMmxWxA
p3787
aVBKEEzeH38YsN7c4dEiuYVQ
p3788
aVAgjQt4Agk3tQko3Ba2WnMg
p3789
aVH7lOSia+KaVjwrsNnnhPeQ
p3790
aVivBedHFMnx34NGaMhfBEfw
p3791
aVMs99XD7LoYQf5cE31RYqXA
p3792
aVEuBIVfeWD8r+rbBiylXZgg
p3793
aV53920
p3794
aVN1BGgNozkMR8RFBjE7lbeg
p3795
aV8Q2HGaTe8L4g98MdmHAsMg
p3796
aVQir8BPz1xHYBQOmIraJq8w
p3797
aVWwXpBTUhdYnLIYgcZlcM6Q
p3798
aVyOOMTqsR9EFECI4lSNpp1A
p3799
aVjpxY+b3nDFDUGLAhot6OhQ
p3800
aVu0CkDvclhtrUnFu6YN41ZA
p3801
aVSb9ZHdrLTQcLMB/DwOqDaw
p3802
aVsx8Y50Zs0f8BTVsUwF3vcQ
p3803
aVsm8gtPUJLXlkfd1Ge2nSUg
p3804
aVkw7mH9QcRV9ZlIdKAzz3sw
p3805
aV3XU1v9s1Z7eUWJc021kbaQ
p3806
aVcB2yRv5ssI1U7Hg/Ts8gUg
p3807
aVyspTPyicC4Ere+tsoRHI1A
p3808
aVz/KVJhM/7ueBJ4Qv3OzSWQ
p3809
aVW2JT6iXRxnJp+XN+1JIAJg
p3810
aVcWy69LFZfLYwImMSPspFDg
p3811
aViJHigwCEWJiT3KHKlHSmkQ
p3812
aVvLuuo8TCWxfe2KhfBJ3AuA
p3813
aVeAAK5tXyi9bMOA/6QH8E4w
p3814
aVC4fONx48vVTqGe26Ns/Vxw
p3815
aVtJqKz8R9zTnPXdi85VHfKQ
p3816
aVCfhT4yAtrvn/CtLbUIy3PA
p3817
aV2Z8FJDqDQNyPvUyc7svoKw
p3818
aVDa1XkSk+QTAneghflPJlCw
p3819
aVOypmeHt7RW4yxp5wXD3Wew
p3820
aV9twMIEf5+YRMDXDntZ8nyg
p3821
aVWV0MNvf6gKlT+mqOhl4hxg
p3822
aVG8J2L1Mb6j/PG8Jnryjsxg
p3823
aVi/uhNuVuFbyVhdWiI3f2gg
p3824
aVj/8HjpDlaRox/ZQ8K9mrlg
p3825
aVIGIrptHu3t6c1WD/Uwd5RQ
p3826
aVbmbMA+Io9dBBmYlr+lMueA
p3827
aVKW0h28hui4wbtW3YPlWjZw
p3828
aVq1H0Ea3A+tbd5qwMLc2J9w
p3829
aVASHojjqA/C814bYLOZW+6Q
p3830
aVpMNb0r3lOhgZ3FdPyoUqtw
p3831
aVwzC2UxNipLI8pUI+kL0TtQ
p3832
aVEZkRXvIWW3foLmBSP7pJHw
p3833
aVsKYtZWvbxxTaD+dP6wJ3tQ
p3834
aV7x1KI97zRaS0ouuGswjZMA
p3835
aVW6Fdz3dujPVn3KzAqYQhXA
p3836
aVjGc2Y9rfADbEmYz6zie+cg
p3837
aV0TTqpU7rDjQ77cXdINlu0A
p3838
aVlE0zv02TiKlG6UkHLyoCdQ
p3839
aVid1N3TbBsWyNzcSxXZ6IPg
p3840
aV8KW+D696St59jRDZe6g1tQ
p3841
aV0FSdOfGRvW4qZJQZLAVpYA
p3842
aVicu+KTJXacO5DfQUyYABgg
p3843
aVnmYBFDDkr855bc5859TJWw
p3844
aVrF3QsFCWWT50wPCAII7dvw
p3845
aVBJbx2oDhxWUmNi+evEzVAA
p3846
aVebkJWWgIRi5IZnoKWk/H1Q
p3847
aV9dpno/5R1hI0T/B3/Rdv+w
p3848
aV5cNAC5Krzh1pMux5L0/paA
p3849
aVjUs27V8Ea64YK22Rv2xM5Q
p3850
aVAz/UWAQTDcpJyI3Y0A0jEA
p3851
aVrsDMf1g0ioGDU8J6XRK7sA
p3852
aV6N2FRxAJUUGqyA47yXlHjA
p3853
aVys0fFOvba9gwPWi4Z6LuKQ
p3854
aVfYGie8TLEo9FyewMYHtTLQ
p3855
aVZC1o0ALclv6D+bLhdcQ4tg
p3856
aVDIx/Ht6Xpfm89yB1Y4MPkg
p3857
aV53bRlroj2pwgchgTOntL7A
p3858
aVE0VeAEeSBou1BI8Qe06urg
p3859
aVbKanQ0Z41Sx1qPrsHgIfvw
p3860
aVvVRthYQRNSZx4ZekdpD7Nw
p3861
aVU6PfJwLQyi1WAIGpglyILg
p3862
aVVXAQKKXoVFr/GBYw/NiWxw
p3863
aV1Kv8DCJT6JZh1/8+XTc/mQ
p3864
aVR5WqBVOnUTmsT/yKOLPNYQ
p3865
aVbwxVKC2LexcpZFWRfydPRA
p3866
aVTOxcwifU8Y35boZCXWqX9w
p3867
aVI71ih8KT7ptBj3zkZWd/dA
p3868
aVJzpeCJKPCG7nOzwxrGdAlg
p3869
aVqWahjcGimN/k9Cy1K//Fig
p3870
aVbXfPLTrkNbaf0hIiTkE4Bw
p3871
aV3avo4UtNsr9V73ilz5Avjw
p3872
aVPcgVjK21GmL9xOS6a88hgw
p3873
aVB68rbJCmldAKo0PEYAASYg
p3874
aVlt5hhG0Dn198PiueagmMGw
p3875
aVrVKO8b+tJBOgN68IU0x7GA
p3876
aVNJiPDrcppDtw4zlVkYYExg
p3877
aVExzl5E/Ci6exrVkhNVZbpg
p3878
aVGjHjTXGzg7hNs14YNPTLZw
p3879
aVzaYbdKj8A8xU7X+mtrWHHQ
p3880
aVGQOGhP+/8eKi123Zg86ZjA
p3881
aVbRl3MlD70tmeUIjBGfoVpQ
p3882
aVwh/waMsuQKN8nPy9yZ5oOQ
p3883
aVKa8oqpf50WYlRIvY7LYQLg
p3884
aVBBpuNJ+1Xe/5JAeuISoFeQ
p3885
aVu+5JQv3vINCd37pbfN3utg
p3886
aVDfwfLTOpscSfhkDHaUHeWQ
p3887
aVcZsjCH/XxpR/WcYsattWKw
p3888
aVOlvEI0oUqHby4tSJUKJxRw
p3889
aVb/zOZrSNhjnxRFi9B8ZA9g
p3890
aVeWaibtEboNwvF/J0Q7IXbw
p3891
aVL8E6uzFRSeuTuP6MPnDIxA
p3892
aVFIAYACy2IdBipcv++NbmBA
p3893
aVqoK7fboDgopGBWJilG69Aw
p3894
aVN6Pazgvu9dyJvRqKAKwNnA
p3895
aVs2zdioxrddoe7+qov7o3XQ
p3896
aVQcgOimTGNiJq4WOVseDWFg
p3897
aV7Na7XG0tfpE2gMZz3oqQpg
p3898
aVdEd396b9L7qG4LkR4wd0Qw
p3899
aVXUfZjUq0+tTWY4/HWOp2iQ
p3900
aVjYlhb4K4lma4OkeXD6qytg
p3901
aVD8uYbhmVkD98/e86sW16rg
p3902
aVA4iSWJesn4F4gkCEGmhJxA
p3903
aVrAj2DR+XLJQKmU8F40ZyQw
p3904
aV++igZ0CsO10FWuRQO+b3jA
p3905
aVzxSvZ64n/rAJvm1JfHmyqA
p3906
aVVuZ3ZQJhaumDRiinIwRvXg
p3907
aVAVBlGXNpPsuDkcspagPcNQ
p3908
aVXZxI3UwvZa9BlrRR62ye/A
p3909
aVv1p5TM9kPU/JTVSYw/rQ7g
p3910
aVGOfTXQFKZnXQrG1cvsoLtA
p3911
aVzNQv1ObkvcM5L71tqagJLg
p3912
aVodPcMQ7ivIrnA/qujl3EDA
p3913
aVMYqGtE3bIgFP/Tdzh/7/pA
p3914
aVIbYoSsITV4RisUodkYF6zw
p3915
aVBz7eFoqmqI53f/AefhmGYg
p3916
aVdmWdJV0KcZAJMusOD/U9VA
p3917
aV6xvhQtfy5bej1nV16VmJDA
p3918
aVQf/AiqN244KHtCBNsf//xg
p3919
aV5zu+CLQZ1fDStqw7QfsClA
p3920
aVx4am7mqt+iSaF3WHIe5CUA
p3921
aVIdMgezu2TnzBfmb8ZvCiwg
p3922
aV0IhkZmtpscV5ieF5xcQY9g
p3923
aVVQKAywm0qK6DAxznyud8ww
p3924
aVC1KUmHTuT+9DC6u/refpAA
p3925
aV194LeTPU03J8Y5k5mO1RFg
p3926
aVqNy4MBRXYXZth0QyGQhENg
p3927
aVfpe65+4slsDgZ6A0Y+LsGA
p3928
aVPv7ZYU4f8UuwHd/5NKVQHw
p3929
aVQ7ZFCTQsSoEvtLZ5AO/PWQ
p3930
aV7fkMbBitYw9CFX0N8x4TMg
p3931
aV/RVkQttqlFr6SJhJr7/fsA
p3932
aVmK/284M+PvERqpedz2vCvg
p3933
aV4jpfAI07P2C59f0hoxFUYg
p3934
aVDUly9hJsRYHugOoUyw8TLQ
p3935
aVmA3ErZAJTBQdU2Hwqab+Sw
p3936
aVouQv0Sc4aPg8AuwhCk+lmw
p3937
aV3FIhxZT9d9ObpAys91FlXQ
p3938
aVGJlVYWbWYi7lcpDJkfuccg
p3939
aV25SRwwiS/3eVnEdMZHnjDA
p3940
aV765ZTRkCxX6r+tSkTNj2Ug
p3941
aViH7vx/lqq7gHvMZhjUuktQ
p3942
aVdYzGQlQYQnkJl0uVsvJJIg
p3943
aV/ixzq9YZJjXe9cyWptF5rw
p3944
aVA8SwTNIffdhXgFzKqShaRg
p3945
aVWaj6WKfDXKn5idnNFZNyTw
p3946
aVVy9Afs/0G5qxwSFDCxtREQ
p3947
aVTloZHcoJAab+ahg/QU8y2Q
p3948
aVyxRN9j/tgudOSOXnBdBA0w
p3949
aVPtZ5xCEDCLFGRUi08NPcAA
p3950
aVfsUTvbhXkKj2KNHirvEvIg
p3951
aVsDUpUdIi/GSpQUgOL6krxw
p3952
aVbiASemSbsqfsKYLJqOgRZA
p3953
aVnK64oKzq40ysSBcgJnKhaw
p3954
aVqw4PAmOjCfALmQvTvHLepA
p3955
aVPvckw9oVw3JKbd2e3sAk1w
p3956
aVpf/2T8ZAVnU9fwRMBOmCUg
p3957
aVbbiW0DHqKxBIYbG7I0ysEQ
p3958
aVz2Hy6oLLFH1b3xGNNhwSzg
p3959
aVfe4khL+YW9VOSj3CX/bVzw
p3960
aVZUf4UYlizITQF4Jk5sMf1A
p3961
aVakD5gRjPB6MARcfck9VWgQ
p3962
aV1sgoD44NPWtbiLScooD3qw
p3963
aVTK3VGReOGgFPOIO4e1m93A
p3964
aVW4EIaS28r8pSMnciz9j7cw
p3965
aVWMK4IhFE7m+k2xgAumQmFg
p3966
aVwOjj4p2wrhSkuhOlkjqI0Q
p3967
aVqw9k7Qn3CMFRzOVUj8zneg
p3968
aVPcWgalGounseMgnK8RZPQw
p3969
aVmArOXSGTb1DFgbHMAHdgPQ
p3970
aVtV9kEl/QBcbHWRcanYBmpQ
p3971
aVH6ZsYL96Gj/XF0M4Vw2XRg
p3972
aVQY+sKrneJDFEFPJClh03xQ
p3973
aV70OttH92k67O5RqGUeBz7g
p3974
aVmaOxfSJNtyJTHvZrvzKGjQ
p3975
aVhc0LUofSVtJkKIO0r20FzA
p3976
aVyBKIj46euxrB4X+nd1s9kg
p3977
aV+a5SqgTrPaSUEIxiX2tP4w
p3978
aVsnlBpHyPot0+X7Gi97u0pw
p3979
aV4bt3Jd/85lYI7c3udNIv/g
p3980
aV7LfsGchHKb7vsVeCRbIBsA
p3981
aV/Z89ECh6VxAfIMK/7gqFFg
p3982
aVlkTnmMwwWu9JC917W9Dn2g
p3983
aV6EXxHRKC58tz+BNqFxjiAQ
p3984
aVd5KfrrmXr3Fr2oCnAe8yXQ
p3985
aVfSU0pnIWSk6nj0n8anUNUg
p3986
aV9vST7ep4y3DC6GSixCP0Qw
p3987
aVnjSdoJWN8aprnmO3d5Cq/w
p3988
aVTq1/nUqPbLp5AXREFbuxYA
p3989
aVXG5bW7x+s7amoWNIQlCtiA
p3990
aVcyommjAnHy2svPlxLTvcpg
p3991
aVmbCV670SVuuYVwkgvn2UXw
p3992
aVVxNy8FqGp3k1sbxYzV7psQ
p3993
aVvz3aQURZAigzHJyH7amBvg
p3994
aVporFifHhlpo8yriMnXqhOg
p3995
aVpmUvk6nFclSrKBGo2QNPVQ
p3996
aV05YYeLaiKqv+GVXdj9tuXw
p3997
aV4cnpgrROn7OSk7tb6EdOCA
p3998
aVq+7qRox82LHb4d9JJLQk9Q
p3999
aV/CDBd8hlKylnB21eiy5z1w
p4000
aV0GBzicxmzLFvX/hzeJyePw
p4001
aVlrbhjMlAqplQwBZxa6QlhA
p4002
aVnOkp1wzgvpGVaQ41oFDiXQ
p4003
aVaPA5VmcHZFJHEwK4rU7C3Q
p4004
aVgAxXXTSMgqsx+F2KtuWu7w
p4005
aV66xWSiT8p2qunJr7lbs4LQ
p4006
aVgFDyGBJ3n7lbpm1b0phNwg
p4007
aVZNChVuaj56y5vswxaQBBww
p4008
aVc5nSCa4+r3xooh0wHDlBcQ
p4009
aVNt1TMQ6Kp4Lkns5h3O/UjQ
p4010
aVMpsXOeFU9mBtFxD68uva/w
p4011
aV7YjH/U0Hf9rPndy31m1smQ
p4012
aVWKU2wXcVlYiAeQ4lwRyMXA
p4013
aVZBnj0f+UtyVB2CodAqj7hw
p4014
aVjUnQaukbN02/JCYBM42Hsg
p4015
aVWoMQXL4+0l8gXzxLCa+Olw
p4016
aV/pwe2sZwWy0v4AgiFkkwQQ
p4017
aVByPSYR/RY49JgSZnWYBdgA
p4018
aVmcsGkkubI1QstGoPTQs1pg
p4019
aVd+GLVQtDCHTmmbwfjKcJRg
p4020
aV9V5FZ+nizmUQTvuqMu4GFg
p4021
aVs0GpfOsUYm3wGh1ctN01oA
p4022
aVrgwpqEtLuBkS9YXD39qTRQ
p4023
aVizIqVlnLh0jie3xHybkI8w
p4024
aVZK7hiCl0xXhMHOn4CJ3vtA
p4025
aVzuvV8fq+kHRO2SFhz0IJfg
p4026
aVAxAa2BuOAJfxqwZ7Mj5rdA
p4027
aVN9JUuPp3cuj5B+uo1RCp/g
p4028
aVgbGDdlDnqezr7m9OgLbUsw
p4029
aVgOTiOiRx6NYPSgppZW+8xw
p4030
aViBQmkm63Iu7LZZkytHMjQg
p4031
aVLT221YrZPBSgJyrBLTEuSA
p4032
aVo9xB9NP7Kzmh3cMmyvKLyg
p4033
aVX+u4T/E5ANkyZLKm1YjqwQ
p4034
aVX50GidIFkfiz6Sbpa375AQ
p4035
aVclhecbXhxsVAtlQ8mllg4Q
p4036
aVpufxW9oMHXjv/OgHSNLMsQ
p4037
aVNDrvdoppX3W6/5Guw9aJxg
p4038
aVoYsZO7loWuLCWVfUIkBfCQ
p4039
aV0qgnsWk0RIGtVnzM9YYRRw
p4040
aV/rXZShtAQ6r3wV/qG9I8vw
p4041
aVWfBypaI6vIJEEKt3tZfCBw
p4042
aVjGvtGIlOquOXksE7pPEv1A
p4043
aVP6JkCQy+FDk1DNk/+IIPAg
p4044
aV22138134
p4045
aVNwdHJdRd9HDyCVdRlJt8nw
p4046
aVOXZLGi+MF+f0fhUoqbDhJg
p4047
aVuCx3ZI0mO9Ba7fYaBw/qMQ
p4048
aV6d0I0KkC4mAeZVlzn/uDNg
p4049
aVWtOD7yv28U3JU1Fjy4+ZDA
p4050
aV9R1dU9LfBh3GP/9E+y0rAg
p4051
aVUDQ9U4VkbnUfCYy105lWCw
p4052
aVYMNcfJJfF0s9daYwSpdOSw
p4053
aVNIXctAueNtl8vOtEYNrNjQ
p4054
aVAkQcjGhwmvyflQUt4wUpGw
p4055
aVh3sZ/TSude02gD1QMh1enw
p4056
aVCNGvcpDUJIU5v2BaN9GeFQ
p4057
aVhIcCI3a3YWe5vtlWvwAT0A
p4058
aVaFeTRgfZ4T9gafMPKPiiCg
p4059
aVAQcnS64wH9UnFzjE1b+hsw
p4060
aVn2pG/9tIwT7Qe2+guOb5Dg
p4061
aVwCvO0ZVSh+lpla+GLNkUjQ
p4062
aVJr2Ci949qzTacPny9F7BKQ
p4063
aV1MoMDu96tNt1bDl3Iau/IA
p4064
aVI6oKlZlwUd4MkXO6rrfsVQ
p4065
aV0QmX0CfdSfgJXVCP6iFMcA
p4066
aVDlBAl2EA4vw5OLOD1iaCsQ
p4067
aVihlD7aKqoLH40rNPc6gBag
p4068
aV6lx/fI7HxADDtmctIljmYw
p4069
aV4wxxkXgsIKLyklMiXqDJ5w
p4070
aVytBTwdzVLrSfkDJR90Nogw
p4071
aV/WJKCjlee7QpTByW07nMTw
p4072
aVTu7xx/1zcQCsTBvX+wKsgA
p4073
aVcIil6ClUylJk37lzKEk1Tw
p4074
aVlc2RxnHtvtigedY/Ocu+Cw
p4075
aVCd4YwcRMsksNWxwkLfHHvg
p4076
aV2HoV8/4hu/N9vhtZBfEuBw
p4077
aVjqOMT5UcCOVPMRJGrNmcHQ
p4078
aVibso5LdOBYg7MD/ecKWcdg
p4079
aVPhjRfhwCqcfj3zNn89Ii7w
p4080
aVX9NiemjD3yKVKrsB+ReJuQ
p4081
aVlGwyy/w+9YHa+fU9PzN6SQ
p4082
aVonJnkQVFOyDld7+bVfR9Dw
p4083
aVlI5VE9WaHER+xdOJWAGwCA
p4084
aVU9II3RZCb/5stgNYX5rxIA
p4085
aVVv3/OgDrYVHaJ4FdYJ4bfw
p4086
aV54c64l5WMSZB3aVozJsbfw
p4087
aVEePQnUBHQ5A9rboiraMjRA
p4088
aVmfTsWHoyuJa2ilMAMcZz8w
p4089
aVdgcGpHCNtqwLFEaHeOB71g
p4090
aVGqAThVFMH8a4OOtWsH1qVA
p4091
aVbpd63sYkIrjBkB/LlKYGbw
p4092
aVsiHhE6HkF0d1jvmkM+zM2A
p4093
aVQqee8gINjDFoy56SPjL4vQ
p4094
aV3bbwHLMkg9rGiTWh1g13cg
p4095
aVsN6bdjLoHXXWHXQWEPlf5w
p4096
aVm7E5RIAaXDmwjCGWc8KNgA
p4097
aVK8PuIZCpiRpDmDFs3k4N9w
p4098
aVgoVpeBsE+93g0/bkwyfigw
p4099
aVAxo1q9QFzkvxhvnmMXc4FQ
p4100
aVre9ab/C2sVztLA8C2Q87kg
p4101
aVsbzUAY+tyxKsA2aeg1b42g
p4102
aVa02X0Q8GeFM9fDoCgzOQ4w
p4103
aVjJtjQvwfGJmem+T6daaUYg
p4104
aViFcge2+gM8WykRvbqF5jYA
p4105
aVXV9frxQTnng4i5ReTjWLog
p4106
aV2z5y5+EUdo/4EvR7fn2BKw
p4107
aV/7oRhTOJ36AMLSMftnqpxQ
p4108
aVi/fnYlq9OQKjtdnHoQ2mOQ
p4109
aV9e9HmBCwTkZrZuTJw+H2kw
p4110
aVAIfIaYPxxMi8Bb28eUqkMQ
p4111
aV73v2/5x/Pi1bOdEAUq4SMQ
p4112
aVozNCZi/YmMQ6T7HXOK0CCw
p4113
aVT3thDbHTsVbuaHli6S6CwA
p4114
aVEfuyalRGKNL5VevKAz5Q/w
p4115
aVVG/qRj20dclKLDJX5LYrcw
p4116
aVBpfSkDCW7kferlTCIag8vw
p4117
aV4qnZcO8wQ1qvmUPjGHVucQ
p4118
aVOZXm4nG4zJVR8dzvRhTKCA
p4119
aVGS/ah6WEazd1u1ujU9lXPg
p4120
aVz18oOPwfL+0RMxZzr72YlA
p4121
aV+2W0vni4uMPD0T+XnnOt/A
p4122
aVB27TjiP0dbv13LYBxZrmKQ
p4123
aV+IUJBElj8WJKF/xMOeyepA
p4124
aVTZjHB9AdJSU2qdDrcFMR3w
p4125
aVv9BpAUSt8SuUeRDw9Zfj5w
p4126
aVFtUt2yB7LyFxFSDR3saNTw
p4127
aVd2TVGPYKm8JSNWMGAr0erA
p4128
aVoh8n7mSNEu5yImXukp7K1A
p4129
aVZToH72LjkPjsnU5LYPp7rQ
p4130
aVtV77B027ZzAIO8CJUjHkhw
p4131
aVBgsYT6Z4m6pdvrDJLDLP5A
p4132
aVxL5W2rr4R6ZRWBy8EIvL6A
p4133
aVsN3Kowq1v0r75Bw9epknNA
p4134
aVweWZ8ft5K/seeb5RxX9H/g
p4135
aV7+Jo7QUbklB7h/8PiA0oDw
p4136
aVwuU4NF0JhlOYwl9XN0PVCQ
p4137
aVDMOv04Uylf778tujCCMAfQ
p4138
aVSzeykJOVEWcGFRXmhuutNA
p4139
aVF0Sas9COoxW7Bi6t1NO0gQ
p4140
aVK+xKH+v9giGAZhVCQ/HIvA
p4141
aVNtxxEX1ZmWiC8GC+0NZyTw
p4142
aVGtPOuKQ+X759AzQlge2YxQ
p4143
aV0OGgFBC91EBc8EFe4s9trQ
p4144
aVm8NPHPVNw4FlXLkQ3VTxow
p4145
aVGMYEdC2ML/Z3ayTMwvGnLg
p4146
aVrcVOaYmSLMbPkBiS3otO5A
p4147
aVEyPqMF3NhTjDVzoYwmOw5Q
p4148
aV/PPpaqPN1ae6uF29YDHrag
p4149
aVIEucE/lmbx46i+ayMs+jcQ
p4150
aVDXl+pwgHgmCQeDLkzlg3ww
p4151
aVW8VqHF4n7n4UpooSsxLnTA
p4152
aV3vkacAl2T9D1mShcrpxQnA
p4153
aVElWp5s6XPKAfbvA7CPJ09w
p4154
aVP31M3iPxypWXB3CJRVgw4Q
p4155
aV5U1bXFEC/N0lQ+9ST7F/uQ
p4156
aV6rDQstimVoi5W6/E+qipMA
p4157
aV6C0FX2vFpzpxkdAWxTfhdQ
p4158
aV662we2nCfRaJBsYSwMWBEA
p4159
aV3fcZO/EVZJvsHPZo0Za/pA
p4160
aVdcfDXAqIQiQLXtS7UN1wUQ
p4161
aVoRX16SpGLGKq8c5QWMnQ6w
p4162
aV6J6OzGHnncibYhIRM0/KZA
p4163
aVhv3tL2kCjyrgaQ/1qaL2jQ
p4164
aV3lO4PUzSaf77/+Aoykqn/g
p4165
aV1s8cpnsJPYzE34vSwNqLNQ
p4166
aVNvfcylC1Ujosu9otcNTX9A
p4167
aVyXgFveeGPMGgC0XT0UMlwQ
p4168
aVz4E3mHyfTXBJH9jlLpL3lQ
p4169
aVnm8xYK0m3hbmZiKPZ8JBgg
p4170
aVjkG6SgyvJ7/U3HnU0LBs/w
p4171
aVL/vAGbUe0oslhaQy07w/lQ
p4172
aVRWey/q2sKCxfwEVYCYkEnA
p4173
aVsJa4GRYhR3Z62zdPzfv+3w
p4174
aVxZPkzeriAMmdBZLi1l5nVg
p4175
aVcoh5Y5nvRXvKuxOqWwq7pA
p4176
aVyCe869TTFrKkuWNu3zVuow
p4177
aVZk9alsGXRzf8r0aA7QB/Kw
p4178
aVFQCK5+Tx6Jx1UiA3JEoPjg
p4179
aV73xzsw1FQnhucI5L0b2kEg
p4180
aVsfT+YOEkWUjjpTcNFQ2gXQ
p4181
aVcSrr74VDwgzylGelFY4UjQ
p4182
aVTw+2b+5SoYz5pC5qrejxDg
p4183
aVfH+TbdDnDEypqfSNmCMt2w
p4184
aV2/3oajyhiUkb3/4QMR1DOg
p4185
aVA6YdjlzdsMtq7e529rqN/w
p4186
aVw4d3595DUqq8Cm0plkk95w
p4187
aVdvi/12IrGP3NR04vLvKB2w
p4188
aV8LxWgoFt0xuSdq2gbX+Zcw
p4189
aVgoeIOt/DXClJxnpHqXnp4Q
p4190
aVa5UtBQs7YcKiGaGpHqQ/rA
p4191
aVv5SAazZ4SSjqfI4NpBEvFA
p4192
aVgz+z1f/VPagx8XiAO5/WHw
p4193
aV89CLwWtVqo9PSU4hM7nNwg
p4194
aV9jKkuCTe6wjJuFnpynZEqw
p4195
aVCM+gf5dg7Y0Xtlq4jNR5tQ
p4196
aVIK2fYOcqTyTEEnjQR/VA1A
p4197
aVznu9vo3mJOrfLUfff/FMwA
p4198
aVnptNQLlTw6pZWkBdzCm3Pg
p4199
aVtb3HUiYU3ZObhhDybs8jKA
p4200
aVWbiSdsTY449EDMUWhRcQXQ
p4201
aVaSM+rky8dFmB0dSnEn6Zpw
p4202
aV/HHKdONChlPmVj7kTm52Kw
p4203
aV2R8S3Pc6QWjEPEKk040Zaw
p4204
aV7oVE7sP2GCmgf+Gh7qWDjg
p4205
aVI0n+EvZyf7VboXGFg2HAfw
p4206
aVYfMXG/M1OftBbjwF3UmfMA
p4207
aVK8YrOJLWBHYCdwwa7/WyIA
p4208
aVT6awr6b0VX/4zty22B3ZtQ
p4209
aVsoxsyp2Qq+Zp1k513p55TA
p4210
aVe4wURps9xGuGLR+2LZ5qcA
p4211
aV9kx+EMdFzzuJfHHUJJge8g
p4212
aVR1l99pKhgCiLrLKr6dPDyg
p4213
aVvpE5Ux191EYMxT2GPzpK+A
p4214
aV4l2dpFkUFoO4Grs1W9BGpA
p4215
aV1zsrOQ3u6YSHfVnf/Br+ew
p4216
aVvdZe7ojjX08iD0f3+tAInw
p4217
aVxM8oyfmHKVql6TukrouFEw
p4218
aVQpE7ivMSuA5ekrlezFbSwg
p4219
aVYINMeDRrbJT/hB/D0WUJnA
p4220
aV1iZkXtQ1i63hRjhcoZx0Bg
p4221
aVmJEE/T+tfAXNLs2rgoQFJA
p4222
aVfta55X3qpyyQWa2z/xT+hA
p4223
aVH50218N+l8iPLJ0VEvhhTA
p4224
aV1uVbVEmaAcztz61O7tDong
p4225
aVJWZEO4qrmFDB9iWSreDNLg
p4226
aVi14NzYTIRsviIw4S85GirQ
p4227
aVq2xU60kQf3k5ZNwTYHGEGA
p4228
aVQ9uv7qR8jzzXkfSD+2x3EQ
p4229
aVB2MZZVviGhnFM299YmZ84Q
p4230
aVI40ylTAG9Hw7KW7cEFj7Qw
p4231
aVGUJWh564B3xTBT74NxGXew
p4232
aVpeEOdgyJHqYz2fG2W2nLCw
p4233
aVM/d+Az1QRHdxx07h2gM0yA
p4234
aV+rGFXyJT1AMlLkxF9ZdTsA
p4235
aVaHiUpq0uk+g3d2fdyzrd4A
p4236
aV2tzV5jKiINJ7I1JEk3KEsg
p4237
aVrhXLveaSD0Fqw0abweY6kw
p4238
aVOOPksfWQWMZcuDHtMh/nAQ
p4239
aVqIo+LI/MaZOf7vD0WKwFqQ
p4240
aV1GA0H/U1X5SKaZxnmgFfkQ
p4241
aVo7+HyfKpyKiR8eryjhUr5A
p4242
aV5i8LJEVkEcxF/aKuevTmpg
p4243
aVkNP5fNaVN3d9G9MjEkFawA
p4244
aVvmrP6gDH0x6cTWK1hGzmOg
p4245
aVYIRu/6j39kb7b3/HICZkkg
p4246
aV6fRIGOFzV6FcnkaXau7Snw
p4247
aV+//1khM9z4eFQt4kS3XzSA
p4248
aV2NvKuFvxr/bPVHFcNY79kA
p4249
aV5VhWJf5EwlnQY1l7Nl36Ew
p4250
aV1jzedSypilR5/OuijWCTlw
p4251
aVjEqXxA7zTFhtgRVjyTLSOg
p4252
aVIOYLpVuNOKZQeDiE4bXQzA
p4253
aVQIiW0Ipcqa0JB1rCT6LIsg
p4254
aVlpZNIueM4nDGtnmb+iN2lQ
p4255
aV0xwi8WGdnBftzWVsP6tu8Q
p4256
aVWBqzGfrQuElEncHlt8fmQg
p4257
aVTnAmOK9s5Ry32CFBSEwpWA
p4258
aVqhL/8QUdfC6NwhFyP8m2og
p4259
aVc4eXyc1HqZULG90EX0vCZw
p4260
aVxRuInM79JfqUYlHFnwmg0Q
p4261
aVQKAqvrfUb9gRfS/IT4JtWQ
p4262
aVCf279SIAM5JPd7pz5FahUQ
p4263
aVmuMoF7dJjqzMIAInbfU9LQ
p4264
aVC9AqoquQQlmQ9bLzZIH4tQ
p4265
aVLugixdjOLK2ESLj4iUJmrg
p4266
aVxq+7ynj59DCJkXgYNHb1SA
p4267
aVUzSNhsCINQ0USp/hQ9B41A
p4268
aVcoP+L6k/HnzcVIZZUsQweg
p4269
aVSKk+v/pNO477zPUclOUVrg
p4270
aVe3DV1L0vEc+NXbfNBplo0g
p4271
aV/BNLtmr0V2JUdbC7ARthOg
p4272
aVnsevu9eduRwWrs+P+9JK7A
p4273
aVckwNJYUqe0HGVpyXLJpxHg
p4274
aVoLqe1SgrZytYO+wQmo927A
p4275
aV2Cf70s/3APNgJ3dguucsRQ
p4276
aVN+2Zo7tUnDtdoKuWQhy2yQ
p4277
aVLsDbJS7EvymVza97ZwrUng
p4278
aVicg8NRAKVeqWCtGX02GTpg
p4279
aVPBPr4ZSr58BExHQ/zGTG+A
p4280
aVQFI91b/FlxQKhFn+dnT6FA
p4281
aVacoKqdjz3rHoPH/+ssHbfA
p4282
aV7T7ajEPkajWEoNwHBjVhbw
p4283
aV6SMKN+WC0n5E4OxFXcK2uQ
p4284
aVUn/VQfq2mIJ0qOgXT3gBzw
p4285
aVrX60omtbupR++zQwSBWf5w
p4286
aVksYvvvEz9ampHPhr4sIcgw
p4287
aVcGnu15KQmidtf1cv4RmO1g
p4288
aV1pAvZoyuRgOpOXTOaEB+Bw
p4289
aVZy6dvzNt3JwXuUlFqRNoEw
p4290
aVIJC4aZrGOeVALGz5b9atMg
p4291
aVuYVWgG3rQC92tQnFFi4Tkw
p4292
aVzz6IOHk3sjvwEp9zrQgBsQ
p4293
aVovKQO2Scx1Lam/PEZG8KTg
p4294
aVG1IVVUIcgFcXzyDXf10OKg
p4295
aV3XXz17F4Qw0xCgpVcT1enw
p4296
aVsWcGwR4QHEyCoKF+rXYHKw
p4297
aV5IV8JmUtqdQ3sKzeGqii1A
p4298
aVut+qqCei6YuHad8BMd6rxA
p4299
aVBd73jQkEWI++8lXrJfk4Ag
p4300
aV/P+7Z0P/b7YiK60FW9dRAQ
p4301
aVaguok+2On1eDftRlpEZjsg
p4302
aVQ18pipZRkTG1sk52fxnVRA
p4303
aVDaOo9U8wkzySpGez5SV85Q
p4304
aVFwEVt52MQlgDy4OOzmvIKQ
p4305
aVooVfypESMfLQqYaRZJz7OQ
p4306
aV9Gya5Pf2dzB6DT3dJevMXg
p4307
aVr1lWTPmcUn2NS8irw1w8Dg
p4308
aVvAgLw5rbHMhpoXxK0x4y2A
p4309
aV/310pG1NqrtUFi+1AO3zLQ
p4310
aV1b8C89rJLeNc0XMoZatmYQ
p4311
aVjJWr7Xh/3FN5KpgWa/E/4Q
p4312
aVPutN/R4qnl3Nuyy0OMf5+w
p4313
aV1l02q+P+w5viqaz1BlpOEg
p4314
aVBBKitZz6lg9JTXyxArfyAA
p4315
aVOmPiVGt6/VKeQE0XSdF6Zw
p4316
aVi1y5kqI1mzPt2+J8+jEC4A
p4317
aVxiWPiuskx7I2d2Nu6xvKKA
p4318
aVCZFIveA/TDor2LPnSLW+xw
p4319
aVchsAQDPbSdX7mCbeHSHRUw
p4320
aVIFpspPLFAvh/uZhRkulGtA
p4321
aVWjvDyE8vtxd4qxHQiJTzbQ
p4322
aVeQ/DFHqW786OLqBi8a8QxQ
p4323
aVYUQn+hdlL7AWFOasMvyTaw
p4324
aVipOKXJksblbWPwBCGAVCUw
p4325
aV5mtePeXBw1r5Icw8mo3qfg
p4326
aV4Za/xXwuuutTe8BcIJpdcw
p4327
aVmDTbFoGyoNVLcTLG+wmzYQ
p4328
aVlkpSDLX7E23/JcKCUqC2AA
p4329
aVRQN3lXgmHvne6cDgPJv7JA
p4330
aVAL10EG+N3Kylw50QI6BuJg
p4331
aVnsufAejONQNZWcdibAOpzQ
p4332
aVo/E0hS66+jM/Lm6gU5M1wg
p4333
aVqquXiKdB7KC+bEL5EnhIQQ
p4334
aVgDKTUYLF6MJrdAY1VNHg3w
p4335
aVmcnUJrituoC7/xt9WEVtfg
p4336
aV8JMylLQmMYvFvGDl5JK5hg
p4337
aVB1VtQZqac0jWFRfcha++7g
p4338
aVYDZb0TPN633RxK0VoyqCgQ
p4339
aVJdsVaED6gpPSAaVwYdASDA
p4340
aVOhJp7H1BGOwjAQnTOTRLAA
p4341
aVP7ZZDofpDgZCa6g5dIKFJQ
p4342
aVEoH7V81l/XfGBM7HzJ5RUA
p4343
aVYYMrpWoS4NfT9uW0S0QRBg
p4344
aVSj2wmvyWFltH4hjy70xcTA
p4345
aVlefwdIV8dBUvcwdUFSpxuw
p4346
aV2+BP1J8o7a+cCqzh3MYn4Q
p4347
aVtOm1ixOox/1dr3HlwW32QA
p4348
aVNhzttIjY8YBnV9a7To1NyQ
p4349
aVCYYq1XDXvjWe6yGTbS3ziA
p4350
aVAYE3ykIrnI0VXNO4sh5k4w
p4351
aVrd2ADfZFDrwEjLDK3wQ0Sw
p4352
aVzgJD6C8gfQGO+2Tar20yfw
p4353
aVDwKGUNENHF3wKUEjs72IQg
p4354
aVrUngNr9tyu7oUDK1MQXNcw
p4355
aV+kTcvFga8m9jXoRJS20/Mg
p4356
aV5QuA8mT0D4Jb3D/FW6uxvg
p4357
aVCa0Kg69yrKuoVLIYwb6HQg
p4358
aV9F5Iuf4wch2z5bBXTwFb8Q
p4359
aVSpp73ole4W4DDJNoxmhp7w
p4360
aV8xRYvIjas/V19LzIQQZSpQ
p4361
aVcWBuzK1FMRYxzgYTF8gIwg
p4362
aVHyvpQvOkWRzMq78gONDjoQ
p4363
aVoUNygoZPa5HOjpJwrEfJ6w
p4364
aViok/krkD1uApEC9QrI0x4Q
p4365
aVfNtfgnFqE+TNPpHykDJhbw
p4366
aVNdotSllTq/IZWX23FYE3PA
p4367
aVcI9q7LCEF2yINFOHy+6MWw
p4368
aVDQaJyDk2pr5GxrjUq8LAxw
p4369
aVAo/hZ3bmidfw1nJopgS4kw
p4370
aVlL9JoLAf4zKeEzsnL9PFdg
p4371
aVtTOUUUUY1QE51YM8slvQyw
p4372
aVsHheem0KkGbMkh9xKoYu5g
p4373
aVJo7+uVIbRgcofC/TpjZ4Qw
p4374
aVgSQbZnb3j/xTHu4X2m+orw
p4375
aVCovrSy55moKrKdETwtFjAg
p4376
aV6EgRW0qan3KnM849+fCYwA
p4377
aVi1MoBfiip57NwPccFxJeEA
p4378
aV/I7FkNQEV+vV9aYOYvFU7g
p4379
aVGdpWnO//lvtM5u8aWyEQRg
p4380
aV+CDl+wiYEOMyzr4BAHlcow
p4381
aV7l7HaSL7EGAu8jj6xlrygg
p4382
aVPb3rQkUHme4LvnR0AAInYA
p4383
aV6XFanbbg0oEuAN66GbnmaA
p4384
aV67ju4uAnHWo2hS1fofZWRw
p4385
aVLo5+ARsfH3ddlj3zzj7H9Q
p4386
aVttg6XOptGcuAMiUw7O8bpg
p4387
aVKWuM0wxZzz499YH/NnmhIQ
p4388
aVermZX1xdqidv12zCxj9Ljg
p4389
aVw/whElPzUAwYikFYAZvhlw
p4390
aVxEsi1oUmfwPyMF7je/J0mw
p4391
aVo5lHIjh2uDkcoUo5L0Mamg
p4392
aVnD6tCWTHtjAMM6xuZxv4uw
p4393
aVSnQXJ3Na6FYQaITqhkQIFQ
p4394
aVCo5vUywSMjXyP7JW366cQA
p4395
aVbyTSum/OBJ4/mTaPl4esPw
p4396
aVMQazb6UZ4O/lXtbQdrIZWQ
p4397
aVB5HzoLUMAJN7clHVWnN1GA
p4398
aVc+y+mv9z7aizX1qxPtqgnA
p4399
aVh253E10/RekTg4hvFJ6KCA
p4400
aVmVcs2JxjyIM2cfalUdnPXA
p4401
aVVy5X/tyDHUtLQwzY0FrHYg
p4402
aVSE76lZrqlIi0ctPvSYzX4A
p4403
aVOLh5bLJCtDR9ZNqreicRpw
p4404
aVkW/0s5Den6u0Y4br4Wilhw
p4405
aVUsYS9j907RG7zaJAKXj85A
p4406
aVqSPZJWQqc9Ob1HTpa2nHvQ
p4407
aVheXWgIhBDqmgIVUPUNhvQg
p4408
aV3CgvSjQTVVVEaD5YGt19Fg
p4409
aV3wJbPrv13upPm9d+TD9PnA
p4410
aVj4+iTY6lypJbnRoORGW2+w
p4411
aVRnye6U/yffj7LCegB2Xjlg
p4412
aVNvi3IFeUiBHRt7wijHVI3Q
p4413
aVQ22KTcelqVaHwORpIzawqw
p4414
aV1+J6tx+xK1PbfRAHX6RSlg
p4415
aVrYqqbv/fJp1RgJzFp2jytw
p4416
aVL/bBFxh4M+TZIQuDs+mo1g
p4417
aVJut59LaNfuO3MZKpIw0AnA
p4418
aV64LEy3HyCypjbTFi9+FZMA
p4419
aVny+Wu03LO2EwDvHRDkHPOQ
p4420
aV97/yejGylAciCLlhcgcHVA
p4421
aVmzwwub9VQXatwGWV0YZIQQ
p4422
aVCQ1Lmlk5Y3Kd2qB/Sn3TFg
p4423
aV3m1gofGJhFBOwoNFy26FaA
p4424
aVUhGmbEJJgXEz3BzvwwnOMA
p4425
aV7ya0BawQj4jZ2O4O/5jXTw
p4426
aVSp1HpkDwaLn51rlERizPHA
p4427
aVJdAdW4ImiPgeG7T8bkOgRQ
p4428
aVadXSt7WNePaNdPOnAI7mAg
p4429
aVWtuwXxyxbK9O35PGqYc8Zg
p4430
aVi3PKTXz6wKkDFIMs0JYUbg
p4431
aVD5MhiBmJDVuCOtApN3b2wQ
p4432
aV4YT+Apilg9X/z307C7InUw
p4433
aVdBXekr2H/tVOkwPEjEqQwQ
p4434
aV+uyZEAh4dj7IQRHioQb8QA
p4435
aVXJcKJVTo4uhUJGup6O8vBw
p4436
aVQACJ37Ysx5/onmpFqNfmJQ
p4437
aVElvziasLz/zzFnX7n9LQzw
p4438
aVzaz2jUeLP5EWuCQmo2FEDQ
p4439
aVM7gP7VPhovkY3nYzSyVkFA
p4440
aV4kuiXPcgCE9wo+mDplpDVg
p4441
aVFA+rmcdxplw7HdKkHn1j0w
p4442
aVBrrR+HlA/4s2sOSn+/UjWw
p4443
aVSwYc+D/PTjNm1cVccju1Xw
p4444
aVsSqon52z+NGfp2V64+KT8w
p4445
aVBIFoNPSWHfQOcjiHSsiZfA
p4446
aV7ExJuaYl2/a3qSUo+og8TQ
p4447
aV1wx348V6ctDFqqYWgP8AgQ
p4448
aVPQVEgCUzDSdSNFZD5wXuvw
p4449
aVPpHgakSjQlVirToLC8m7tA
p4450
aVAd9c1Sff8ZI+dKatWFgcEw
p4451
aV2XHTY3Ro5tGcLqhW8lWDjg
p4452
aVafWGNf/WBEpJ7XTIK3WoTw
p4453
aVuTAZ8SSSb+9UY4iT33HAPg
p4454
aV/wJfzGbQXU77u2gLwi1xvA
p4455
aVVAc7Q6bBPRz7eACKuwoAEA
p4456
aVZfaiYPgukMal0CDdC72mZw
p4457
aVWYr/s+Lp4Kg6DeFbzQMdaw
p4458
aV+u/gmjdZT6heQBMJYCMzHQ
p4459
aV08885SgKyg1V4czTqznRWA
p4460
aVCk1CE7jfo1SXKEfdRi3cgQ
p4461
aVcUJMmMpUBKpqFYaYKPEt6A
p4462
aVsSZBJzpy1ZH4aGvCJdw9qw
p4463
aV/CgyxNvYyO7QlMYP4SX4Yg
p4464
aVhA6yLdg2cmZbH5heqJjxNQ
p4465
aVi/nLlN3S3+THVAN4MbCPbg
p4466
aV2lcp9D1JM5pvm7jhb7T33Q
p4467
aVyrb2dCeRQs4uixB5dmTfeQ
p4468
aV8MD7/hkghOz++XhWHaw3SA
p4469
aVVLimixCqujjB0l3FozdUHQ
p4470
aVGn0ig45rDkSG+iJmUShWYw
p4471
aVPDg6mO7mCHVwA+t3eM4EZg
p4472
aVBaDc6xZ23lwn4uQd6BQbAw
p4473
aVj12WBLDLm1/Ft2bLtpgUVw
p4474
aVrjOoUmARQcfeahah9VyqYw
p4475
aVRc3i57a8HN0uGlLmXWDIpA
p4476
aV18s11q1bNKhkyxaWhsoZtg
p4477
aVbjBx6dgWF13KX1MBzJGHvw
p4478
aVEqUBBFvTRksoPjOdBgtYtg
p4479
aVx2XEZSszGWi0CF/hdl3gVQ
p4480
aV0QS49EWyisYs4MkmBBQx7w
p4481
aV4N1H1VHzIcHS0I0UV4zwHQ
p4482
aViX4uYCujoLCTgizC/EAcew
p4483
aVdLGDC8tO4W3ZKKrU0L9cFw
p4484
aV7CoNJhDK1OKhH96lm1TS3g
p4485
aVQ/0bOxUjBD16wVROzRGfQg
p4486
aVeZLrODgdmyAxnvOu//EenQ
p4487
aV985GLYTI2h+CZX8fGFA2ug
p4488
aVQXAxAOoBvRMmf1a0qCgX4Q
p4489
aVLj8+Q1ce6fkAmiLQdMqT3g
p4490
aVPCPkxjIs2xVx2u/eO35NkQ
p4491
aVUZQJ/TDWYPPhoAxZpBiEsg
p4492
aVGmzktdi7SyRTsixKUD1NIw
p4493
aVh/IA+6TvHnBPdv3jXmz6HA
p4494
aVKSZRcUzjP9mjh06dWdA8Tg
p4495
aVkn33lPAml7vz0PbmhGm0rg
p4496
aVpYApDH/Q+9aPU7OlkoqUxw
p4497
aV+kxChMAuzN3Kt7wjtLYIWw
p4498
aVY5jHH3rkWY8neGFznOZs+g
p4499
aVw+F/WWdUSwjsbJHsdPTkqg
p4500
aVS2bCNxIeyj3ZrYb8xGlR5w
p4501
aVHPYlHKY5Q3McS6kmn407DA
p4502
aVWvPpKr1D4DSEZms3INg2Ow
p4503
aV9xsRsEs93cJjlt/4HA9gqw
p4504
aVovxymuauDOAfRPJkAUWZQA
p4505
aVouaSxOEnVTyZTs09Z/PEyQ
p4506
aV7PXNtgOFRZz+Rv6JvKVN3g
p4507
aV8ENoBSadLTQCzKmqQ4AtZA
p4508
aVsf6/SuU2fO5EiTyZ05aWuw
p4509
aVoQSgrfavaxyHYmxGZ4L57A
p4510
aV31FfArkKxACG7DZC4sPxqg
p4511
aVwzqig5xm/cpaFN3b68B6MA
p4512
aVjHnx48lMTaPZLBNypgAVHg
p4513
aVPxh/5yR6XyRP+L0G3iKnNw
p4514
aVfjVWt+9TYzjlv/c8jIVV5A
p4515
aVIDK3AZ9I+pzEYi+aKrCE7Q
p4516
aV+G9zgowdB67uGft1qHsVfw
p4517
aVt5O9aVWu4xVJZKFjho4Phg
p4518
aV6+OOHZs9FS1rxYl8uKJWwA
p4519
aV6PFx03SIuIlSsnZ9e+rIEg
p4520
aV6uOhCabjNLA3EsnudovNHA
p4521
aVOlqYk4bkza5yDfwIWm2xaQ
p4522
aVrzmhMcXwSFF5ISodubN9ng
p4523
aVnLhgtsCm4ctkpDR3OSlJ4g
p4524
aV6N3HQ7UUF99E+MNOJL38CQ
p4525
aVneCD/XC5CFU4C5xt3Jyu1A
p4526
aVvoNK28BclBfTbtrVd+zw6Q
p4527
aVJNdOsIx1213h94/sg1PIAw
p4528
aVh7/gqh6tqXb9AEcPO9r9lQ
p4529
aVYJnLYpmwmNzLl12Y1+jVjA
p4530
aV+Hg6NdOX/y4en1nNweyqHQ
p4531
aV1kcKCi9qtSKKG+K/3m3+gg
p4532
aVaYPS+m/t73Mgdl00M+hreA
p4533
aVCmQLJURuQ5ebWr1r6wg7ng
p4534
aVi4l1AhY8piL9XZ61nqBl3Q
p4535
aVnkt5AtBG1nCOFB5quSqsuA
p4536
aVLHT1FfKkEKnMvX69fULApQ
p4537
aV0FrgKyKHMhxlFO8njWgCIQ
p4538
aVrBlOgD6Y+fPRRGr0dnEN4Q
p4539
aV7kT4/5Se2+RSzBZjY5HtOw
p4540
aV+voWHw61IwcsfnpG/hYi7w
p4541
aVJWGtkDS7KPM2hkeBqeDzTw
p4542
aVc6knF/U9DLcYL+Io8WwtKQ
p4543
aVqSXZPt9nPBKuKK5yTyaE3w
p4544
aV+xB8fjs8djeFPmgqg7pdjg
p4545
aVtRCd/r2coWjvXJ+94lFnHQ
p4546
aVuZ7JNBjWMPNmo9s8Ce45tw
p4547
aV1JgaC53MDKGipOOkXLS+aw
p4548
aV9VFL5DobwjHUTmSytPbCYQ
p4549
aVqWk4hOGXeew3B4e13M6G0Q
p4550
aVaXF/ajMALx5BP/BCuj/5SQ
p4551
aV6+Fq9Gx84/VrZQTXCtC2eg
p4552
aVHqHGThARWwG+WxbLmk3h7w
p4553
aVEdmdpUTlqrOa/CCKAGtxaQ
p4554
aVyv2kK5cQ1IuuJorXB4zX6Q
p4555
aVkUvrXAJtl40aDcwoz675aA
p4556
aV2a1M0cPsrdw7nDvzFZpYUQ
p4557
aV7OlLj/eOhCR/RY2YA3edvw
p4558
aVSETY3lm1+VCpbLSmIRD8Fg
p4559
aVZEOak7QrjlNu16uqFxGg2A
p4560
aVnXC0EHJXeuLWTpAUTMVZaA
p4561
aVYnFMkMzgQfTnSKBLRL2HdA
p4562
aVwJxUGVNc9nEcF32XNgyOXQ
p4563
aV+1xsFsIzT4i2wuDF4PI3wQ
p4564
aV+ECrWAA7dQxPgZCQRvNEkw
p4565
aVsYeaxZunQUuMo8dq5MhHYQ
p4566
aVXuhTbc2GGfeX8tGGB5x0ig
p4567
aV7bz+D40pch3B603yWxTQsQ
p4568
aVmBWkrSyo2hEb1hhOd7eWZg
p4569
aVOxE8pLYVqpzIYRucCN32uw
p4570
aVikWSbll7cmmcmF+o3xOmmw
p4571
aVbZsqacZxnbxGpxOVeZJjkQ
p4572
aVrV6NmmfSgbZgVbr420TtEA
p4573
aVDR2NKuhN5Tb2yI2LroKOVA
p4574
aVyjgEJTh+83YfHqRsRMSmGA
p4575
aVaLFcl2MI5OD3uJ9w6cQzEw
p4576
aV8URXmSD72EDsI6JMFaoU4g
p4577
aVtGTsUiYqb2TOicYgMlG8RA
p4578
aVI+nFIZnJ30N4gbAi4uNdGw
p4579
aVGOv33J6ZCaCtYC2tLxg4Lg
p4580
aVXyS83KwoG/urXVr51TXQmA
p4581
aVNmyPXD2fQZ8rKsbbCeucJg
p4582
aVBjMM9pyhOqEU5jmlrXQwDA
p4583
aVRDMXsG3vZ4uMdSHiBh5DbA
p4584
aVyltmreBWu6Oju70VUXTCcg
p4585
aVS33dLcVTq0RT7o3L1XyGzA
p4586
aVez0GZFGDxzCU4Ra88+vnAg
p4587
aVGWxDxTTwBTPw7DYvzB9T2g
p4588
aVFOgvUnCcBy03QLL/w5tH7g
p4589
aVMtyaeEpW0tz9fACxulSu7w
p4590
aVUBBgaRHSufd3aEN/m+prAA
p4591
aVwmVcOIztwElnxxMN0+4v3A
p4592
aVrcIwqv/EwsmCoS2dLCqpbA
p4593
aVZWkIyBSLS01I6fIIlG6zyw
p4594
aVrjArz0mIj6aeS1v1//PMpw
p4595
aVHAOa1yKRpUBifPYdXn2HVQ
p4596
aVBf7rsCxs6OvQXjS2Tlqhaw
p4597
aVQzuECw2+UZfFuPPp6tehwA
p4598
aV4M4SSwxehUXqt5D49wt0pA
p4599
aVwpvjKcBzALw1w/h6zi7mhw
p4600
aV7/AUP9eIv7JWCe9qzggGuA
p4601
aVYFQwzPHe9fzYatvvReb42Q
p4602
aVelzjf7ECLeQKbtm3Wkijkg
p4603
aVTLvAp+BfmJtylCuiYcuzWg
p4604
aVZgSZ6ZxhBcq51qeJXm5GQQ
p4605
aV276z/zUsxwZhEhrRW4Pyhg
p4606
aVVD7cTt0pm7Ne2EGgK9n5eA
p4607
aVj2BJIYl687ADi10Ml+izeA
p4608
aVvWuKFEAv3z4hXuK3bsdQ3A
p4609
aVpaLQUXi/Ks+uw4fG16aDlQ
p4610
aVMAhY0d5mTduBs9nmaHWKow
p4611
aVBIV4RvX5MN4792ipkqTfXg
p4612
aVhh5JY3qApY2LOtZvfrSOmQ
p4613
aVp6hrIaaPsqziLWdYpSEm4Q
p4614
aVMbolvtuGox16PTpaKdA2Qw
p4615
aV1zruBh+6qm5vlRjE8+bMFA
p4616
aVr+ijw9chua7wMQxT60GGzw
p4617
aVg5XvNw003fA38WLrKUrYWw
p4618
aVK6g5MvL4gq9VuH0/O/g0aA
p4619
aVeUSobV2Qmwk7sbnEzIjsAA
p4620
aVL4vs8yXcY1UAPEXZk00PuA
p4621
aVWxF+s+7nMn3ulvuarj+Wmg
p4622
aVHHTkUm5ftH20ypiP7c5yqQ
p4623
aVUwBDKKPu82MEhV8MJqJl3w
p4624
aV36dpkgmqgIn/d5QbuydfcQ
p4625
aVnoQASEeSIYiNf8Ct2bRCEA
p4626
aVJXRmbniNQc9rZUG/QRxXMg
p4627
aVOWWenquLmXQ/cFUIpKAs7A
p4628
aVnTx5o0sg5WZkRER4KZ9ZMg
p4629
aVE/ubnRfmelNgCl/tWArF/A
p4630
aVPiuGVl4ELGVCluIQeZWlCg
p4631
aVC8B6L5hnUk9qxbgwLRPv1A
p4632
aVCiNs3Q0JmyauMfyX/U6CBQ
p4633
aVe1zpcR1j2y5b07gNKVUZzA
p4634
aV+i89fFvw+XZgAINehqDESw
p4635
aVZvUzSVOOKZwfU5rLMFTUFg
p4636
aVs0g5gecY3Sb4x9AfwUA/IA
p4637
aVrR3CmfYocIlzinxtuXp0zQ
p4638
aVfsk3Cp29MvtvxssUaUaOAA
p4639
aVF0ZI/7qx+VlLz7yaemqFaA
p4640
aVFSYlp8+z5w7trI8v2YZPpA
p4641
aVcTgltlEXD6mjCuywNKPRAg
p4642
aV2D7DCDYoCsSHR3GhXYH44w
p4643
aVKsryRpnd1z6Nv9nPQesWGA
p4644
aVWYq6yIwhl/N4eLdvikEo1w
p4645
aV48Ad53NS8H/1xhem5tu//Q
p4646
aVdQGyl79fS8+PuVgomUj2Iw
p4647
aVpy0XNt03NSBzWr2tR5fuPw
p4648
aVsWFBaCoRdyM7j3PdjdXjWw
p4649
aVUDc1E6zjbXYChrtUVP3XbQ
p4650
aVyqevUeXqo8aX4PKvU4bPzg
p4651
aVVZiF8QK6YX8eiMX6GLUa6A
p4652
aVJrjXhUBk2Ju/f/nd+KQ4eQ
p4653
aV5nhHtkDYYcZh7VxXCdGjJA
p4654
aVwKdhEyFAYiOSOJCCKCQnvw
p4655
aVo+xR6xRoNOGUtG49RmQ8ag
p4656
aV5VrZEvb5/85sO1jWAHw0ug
p4657
aVoLsYibHkf4Btx/zWphvEXQ
p4658
aVm6Mji+pEZIWOm3oJCBiSIA
p4659
aVjUOpmFvYpx8cSuiepD1pEw
p4660
aVXCXsq14mjz2Ek8CTLSJjWQ
p4661
aVgQOE9lUNE8/aDR+hOejubQ
p4662
aVyUGq5S6b3zQ5wgt2CEgl6g
p4663
aVUjgcNJuvSN3FES02+1RTGA
p4664
aVD1P5j8xy6gWRWUIuiEY79A
p4665
aVF+JReITQckhY4LyyNGNPgQ
p4666
aVEMGqsvt9nffK9AY90bLknQ
p4667
aVplEB4szzlPrrdumhYrCYUg
p4668
aVus60pvTT3rpfi9QBvtHUAg
p4669
aV7sayJLSEW7PdC91JnZ/7Wg
p4670
aVI8TBseDZQbKbpr5uwT94+A
p4671
aVd57iUQ7p/ReM98KXwcNAjQ
p4672
aVXoftf6etXmSIOTcELOhauw
p4673
aV4xAXByV/vBpOxGmSjzhvig
p4674
aVHeN+EcFRy9O2AQJJzlNrVw
p4675
aVOxIRInWyE9orDyhNXEkOTQ
p4676
aV82Sd4s3UPkASyaY8b3DuAg
p4677
aViu80HDvF4g9T5JqAAf7rRw
p4678
aVVfmVZ7aBUDIPq4VQNXWhjA
p4679
aVG2MnAlnL18pzPKLpvn/SDA
p4680
aVctbo6mf+dz+C3WsILlF+3A
p4681
aV+NcndYi+nwhpXWE3OukUCA
p4682
aV08AoMAAWbJ4MgdsHXjl6uQ
p4683
aV43xqrrk0/3XYo2J0/w4gjg
p4684
aVQmxvz9BVkImu7n46GmarIg
p4685
aVhOg0VZF0Q+ou0uEokugl/Q
p4686
aV1CVIDqM2e7ShsOadI2YDWg
p4687
aVIm4bjjdyClrrRfi+sny4kA
p4688
aVe6R4TY9J6sIJ728IktZNaA
p4689
aVm+UtvnZdYFrXSB7Ya+amrA
p4690
aVTWh/YlNSaJxBpMouhe5uPg
p4691
aVCwVshbTrVVJOwsD4oAvVFA
p4692
aVPR70fyu4w/n33d48c7eOng
p4693
aVT6NmaYoAg7N6t1YO/dETNw
p4694
aVmOyNGbGj1BSOHNrrAmFLQg
p4695
aVikFgxdc0I4hwCstjiSU9BA
p4696
aVolZrJAuPb0naFibngyYK4A
p4697
aVZ9a9AtDKhbDU80uqLJgyxw
p4698
aVY3F3S8011meCzMYL09g/qg
p4699
aVzNzPng2qXI08WqScnpadXw
p4700
aV1vKzX0PYUMUoZElhFX11YQ
p4701
aVqY419CX/Ay9hP0sxj99V0A
p4702
aVRps1e1hfwzPHI87SNPQzZQ
p4703
aVhc5WVy+5kwjJqrSp1nkWmQ
p4704
aV+NUWldlq2Rkeq+qTrEFuKw
p4705
aV4u2pNoT+QwzOaSvZLwZ1GQ
p4706
aVhrkIvFQIUP2szHfQeioFzA
p4707
aVLNMKd6DwNfJJItW3BKuZpQ
p4708
aVjAXtQDaQQkFbI4rNTdHWkQ
p4709
aVDVIELCPNa3szax5m8o13Yg
p4710
aVbJ8+L8KEGugyLETF5B15vw
p4711
aVRkJ9uVYGJlaKcZlz6YIcFA
p4712
aVcBmM9kFICsF/jKHhD5Kd1A
p4713
aVIrlQO/C9aLlT4Wfbubom5w
p4714
aVa+ZWLH95AWD2cOYLwItLQg
p4715
aV5ip14cZqT+uEDEOK45Rq7g
p4716
aV16oxk78iPjMGQKHjxquCDQ
p4717
aV5W8ROgA23HS7YgwsgDgGgQ
p4718
aVt9q6lR6FJYj1n2WB24pxDQ
p4719
aV2dgDjrRV0r9vtGtSBQJMAQ
p4720
aVmpghQm4bSRSWYzSwlhzK2A
p4721
aV/uZlMiF+ypXx5tojk1VP6w
p4722
aVLWd7tEGK1NdxWHP8okTqHA
p4723
aVv/LGyU0NyACV8j0rZFhhaQ
p4724
aVOaGXJBmbFVj8NUoyy9PWzQ
p4725
aV/EaylJt92f650JH8xu+Xbw
p4726
aV/6Dcg+F+S6Z0D2nS/tgT0g
p4727
aV3Qg+Zzv8zBhPrgHDPJPXqw
p4728
aVZiNWzHJlbxVTpKC+WQFJow
p4729
aVHdYUAJw41yAH2GkrbAh4zQ
p4730
aV8/o5ChUp+9ZsuL0xkXkjAw
p4731
aVM4JxINTbMtP9Q4i/C28ZKA
p4732
aV+Y0FAwrl6rL4Eq2vIEx2Bg
p4733
aVnR+vbK8jviRnm3h5CM9LVw
p4734
aVaUGFvtRQ9bVzPt55feWqSg
p4735
aVzNYreK72dFfrswd/sn/FWw
p4736
aVl9Hyuoetc/CDawos9eT4ZQ
p4737
aVhzKqG2kalqShtV7U4PBIaw
p4738
aVIf6IHAD83NetfQhbngwoOA
p4739
aVdZLpq1X1Bx/8a42WZCIPMg
p4740
aVr8cvd6VWc9tIlXfkTb6m3A
p4741
aVPTJUrj+L3wBoluxE4/nWxQ
p4742
aVWBRZgiO8YErMMMGR2vT/7g
p4743
aVEW2DjH0/LLkb08fGS16R8g
p4744
aVIzIG8DOqbDkmgJaFVbhaYw
p4745
aV6gZW0x7Ji/ISYLw4dAtEPg
p4746
aVhYwrxdXNEWwoRmuQm/VFBA
p4747
aVvG4Yl4vmRhi2nCfQw9d/Yw
p4748
aV4zs/CyxZ/7Gn77rUOy0ZeQ
p4749
aVzR2oRovERsnED8oG7wcVig
p4750
aV+vVOHkJeFJriVE5mVmp2Kw
p4751
aV1uadzoMdwLu8ZTizmRA+nQ
p4752
aVIVl4lfLPqm7nBRGTnhlYHg
p4753
aViRthEQptnbL05g0bAAj6hg
p4754
aVl6bK+qL5wcClUX4+/QDtHw
p4755
aV4B9Bc8VGMMa21gK2BnB6Aw
p4756
aVxqF+xrSt886IoiNKCnfF6g
p4757
aVjgG1QMRGlfI0W1sCYxFI7A
p4758
aVnCd6IwA+OvpDIb67Yr6xXw
p4759
aVcev/U1KhP3LRO62RY5W8uQ
p4760
aVDfdM7Ok6iOUwGIpZFzuFYw
p4761
aV/okPmGYYYIV0ssQJTayFxQ
p4762
aVwlQzzjnXWUzgxjls41UtxQ
p4763
aVfwBaB+FAIPyjITHTYi2M4g
p4764
aV8hKk7xtUVUI6QWFxkcm4BQ
p4765
aVsyEbpQLgKpEUbaVLaN35KA
p4766
aVMJW3U7lfavAckfX+5tPkZQ
p4767
aV3V4hNyjHh1feEkqoq+1UQQ
p4768
aVrO2VLUQ76bgAGGiVg2XzVQ
p4769
aV8LL7HXi5B54XIhQPCA6bRA
p4770
aVtBb4ldc9udayKqzaxpd4qg
p4771
aVslsgV118zlgiRKu9o1+zQw
p4772
aV4ygpQznBybmTw2jyd3e4GA
p4773
aVhFa+vtdeBmb09OJEzd1rMg
p4774
aVR6X9093Ri47BcPdFhssLyw
p4775
aVNEBi0GEyObo2ou/g5lNFgA
p4776
aVxcKso6sogvLEYXfq3oshfA
p4777
aV6xEhYFraoweVXg7shX/3Dg
p4778
aVWrIWt971ly1TGKXkUBpoCw
p4779
aVAMqMLSbphDpif8xHwUsxOg
p4780
aVm+DpQpQBp7wkT81TIz6sFQ
p4781
aVivxfsgTr6oeEHGzX/5jbLQ
p4782
aVCpY4G+653X/KJ5WY5o3mIw
p4783
aVpCUCE5jdd0ZDGszjLsUdeQ
p4784
aVDsHHOoDivFpILHcSWPbFVw
p4785
aVUU54Cw6IdxcOhBChH/6zeA
p4786
aV4E1bfldtnEimt0llevIJrw
p4787
aVXS0lpTPGmFheS6e32LGYtw
p4788
aVgSC3orEponYPf0Glj82u7Q
p4789
aV/Y1Y5F0LPdozB5icYS6ggA
p4790
aVy/5V3iRCwV2Kwl/RZIQIVg
p4791
aVKzPxuUCebu+WAc1q4jgC1Q
p4792
aVm5Kw36k8GpF/Flowa5xdSQ
p4793
aVNRZ74Zu2kjvVFdiORzVy1Q
p4794
aVjnTmPONNvmjvEeJPqdOXQQ
p4795
aV6QR1NLQtwn0QII+Hk+ulBg
p4796
aV3NemZ0sSlmbZIumaslPuUw
p4797
aVtOhfT3aLAlrOObES87Ep8w
p4798
aVXO1tbyOM9yaoTzn7Le7FvA
p4799
aVdtS/FJjxzh2fKMveZT/MHQ
p4800
aVR1qahRAOLQD9sRoOsqgtnw
p4801
aVT0ZRga6lm9nAXru8nEXGnA
p4802
aVWyT7qh7W9cfrnpHfg3vrxg
p4803
aVuRDtxdwxWMk7IAGy06yJCQ
p4804
aV3TlZzaSG1LOtQiafgUyTbw
p4805
aVeFi5HimOV8Xc7IH2/eDjhg
p4806
aVnS7cNnuvUResMRPReAgF9w
p4807
aV4opTs2Pvddue1CHyIpivOQ
p4808
aVcdMpGu8K5B2jnHK+c7pSYQ
p4809
aVxXqOEHpwGrql03rojaESxQ
p4810
aVBeUFxTWGQ3GleFixngarkg
p4811
aVekibvbB11GkIJPsRdhebhg
p4812
aVGFtUVlsJ70f+dYJ2u8YVyA
p4813
aVPishAXqMhiQGj5txjPAnTg
p4814
aV+DfzXGJr5Sxk0nU9u3TdGg
p4815
aVvlv9k6BnIhsjR+K0cDyM8g
p4816
aV6Uvsc/PkYdC6+zVuoxRVVQ
p4817
aVsIw0BtnSPzcoH7WoRnS4tw
p4818
aVq8UwYhxBCZqQveDyIqUZng
p4819
aVZ3nMcLunJVOO+PeynU1iyw
p4820
aVkkW9EizWIAaNAOmlYjUMKw
p4821
aVfuKlD+jGosuEWHVInYbjmA
p4822
aVzbQsdX+m7fBN7onNIa+MiA
p4823
aVZRzg+Ov3q18AJcRhSdpl5g
p4824
aVC5jJuFciOJRL3pU1uH6GZg
p4825
aVJBnvYjNXG89HvFtkO0fxaw
p4826
aVY0osEqcYdMWKmuM8h/RofA
p4827
aVHjfZlS3K5DnvJF8dGLFgqw
p4828
aVCvfsw2ojzFHPkMLsrnTPuQ
p4829
aVy7K1IkrL2/Wa2yt3ZM5JPA
p4830
aVJPzqsVCC8QI73S4Q0NUUzw
p4831
aVlF/sw3yPw6yAOTER+qQzmQ
p4832
aVV7W6Z17fYg2mbnJlgq5D8w
p4833
aV6ybT4LkaZpeVbWSDR0FgVw
p4834
aVucR0l2pNYvgPIg7ayds7gg
p4835
aVVgPRP06v49zBuXg3EWodhQ
p4836
aVOV9Qfsgh6Wy9u+emV+D/zQ
p4837
aVNhLk/PrSUDflH40/h1xoQg
p4838
aVJmaAsxl1DYRXbamGueibKA
p4839
aV2Ef1WDNPSxs58l1p39qAKw
p4840
aVwKVxM3XKPsrB3YOBsnyeTA
p4841
aVrlbGQKphdReadlqhrJFCdQ
p4842
aVEJnpYQT8dsgK5vUz3GUfaQ
p4843
aVOXnFl3yKfCZFdDJN5h/HnQ
p4844
aVLKxXl3sb9Aof0uuE+PgI2Q
p4845
aVxEvLNEi1n2j+2Trblncpag
p4846
aVn3HnflvE8WSHE/EWCjlSLQ
p4847
aVSFGgUfGkWwLQNPhMG6jLzg
p4848
aVJatsNil9eD2+ErG1zDbT3Q
p4849
aV/IfqaZ/RqDziEpK7a8C7sA
p4850
aV42b6rhZYzhc4U8o17NofmQ
p4851
aVLD9xkJy3JvMIHuAJYpUkKQ
p4852
aVzHrr1zupToRM6AVIV5sPnQ
p4853
aVEDnpJsLLSpmqwDbsIICENA
p4854
aV+bJzmW8E3cy545zmxmKnjA
p4855
aVlok5/nh4YaFbL7NUiKNQKw
p4856
aVeOzNPURpvMnBpnTiMrCEBw
p4857
aV2XJf4MWc+YUnzAk0pPiQ0A
p4858
aVDEgDUUu7cBk/Qx/ILFy0HQ
p4859
aVXmos3Fs75XWOYn9G9boWxA
p4860
aVKh77IxEh/qHudPYcv8aB6w
p4861
aVJX4JvBpQ0OnX/xRfyWVX6A
p4862
aVQTvgeyCiv0bDTzLMMEa6Mg
p4863
aVpNopeGiBKNf1gZfzwUOr+w
p4864
aVKkVP+D8jFziOEa2LN+fk9Q
p4865
aVJ/4bFjYoOuyI0L3/oa4TEA
p4866
aVISinVGndXTz6MfgEfhD+Pw
p4867
aVwtmc9Ui6lZKJKAtxOjJczg
p4868
aV/bN9RQGQC7NNro++4eOSIQ
p4869
aVdKEqywuYJrq8PcIsHu/wag
p4870
aVz3uVFuZ+iZuLAh6ch8zIiQ
p4871
aVFT4024kB621B4tqCTQHY3w
p4872
aVNWBPM+8o1tSQ2ZNVW4jdWw
p4873
aVp7tW8a9G4XZ9afzYEnSCRQ
p4874
aV7K0xTM6t9W99Z423aXbjlw
p4875
aV8xhVwIu+tvj3RC3pK/mXTQ
p4876
aVvKKBrYYtaIe74wWpUt1smg
p4877
aV6GIiEMXYcGaNeP1XEzZeYg
p4878
aVUJKYbHfakgeImVPlU1Hdrw
p4879
aVTpfOixfKNkeokXcu/6o8Yg
p4880
aVBNdzrCnk2D8vXkgKDZ230g
p4881
aVH3+6rVXkl7q2fX8pabd37Q
p4882
aVZjyw4t7t9FF0ti9zLK6PCA
p4883
aVvcVHeWeMdX/tysQXCX3dug
p4884
aVNotys0ygkre+dMa4odfAmQ
p4885
aVgr7yzW6sKVCcw73AvrMJ+w
p4886
aVe6Mmc6tVEzj24Njmznla6Q
p4887
aV/XXjgTQv8whwkPx++mGJsw
p4888
aVI4HLPhQ07tqhoINSw29erQ
p4889
aVCUQXyLNnwHGLlVHWiEaghQ
p4890
aVQw0tvETZEKAnvlX0N2A+TQ
p4891
aV1MiTNHs8pG8iw8cdmEM+lw
p4892
aVu3iM2k8t3WVCJvu1Buh8+Q
p4893
aV5ZmcsS+lDu7K17gR9h2B4A
p4894
aVE8nFzj+YmmMt1DJm3oUySg
p4895
aVxmwmezxpCOfJaBpPl30u4A
p4896
aVBWDklD32+JulEKbkdJ6faQ
p4897
aV8eHZbCNEIdAVVLhNVHTRDA
p4898
aV34N4xzwTekPtxVjXXcB/lw
p4899
aVRzfcnFaVqUFAWzrpaElcsw
p4900
aVhITZjEBDFIt6lJqZ/v21fw
p4901
aVlAa1tOHyd6z5vlOje8pxmg
p4902
aVha5S6/qPkVJ7j8wm3w0jJQ
p4903
aVelizdsKSUTdz03DGhameVw
p4904
aV+IYTq+Xa6x19eB6OsFr1gA
p4905
aVQn9EHmcyrzGbXlVsWKWH/A
p4906
aVbnxGlRYqPKSyGM0uXYKsxg
p4907
aVbbEBePubZBODm4lAdTbmQg
p4908
aVuM2Qw2jYSfpoIbmujMY51Q
p4909
aVhtZ2ZH1E3LCmcdhAOtllkQ
p4910
aV4xe7BMIC4ZCuSpTDW23oag
p4911
aVkca9LagpXaC5y38AoIs6/w
p4912
aV1RLOAz26agGOHVFdpSGXdQ
p4913
aVzuTI1PWSILh+DZZNIvMMdA
p4914
aVOPEglAGmUA0vHFHWj5Q2yQ
p4915
aVMr6D8PnX+YX3FuzFiAD03w
p4916
aVSdJvIA7sZPvuweQIP3MaPw
p4917
aVVP8zRGrfIIYKQrIN+czl+w
p4918
aVdzxa2F7cfaPOGbjw+kpeFA
p4919
aVZpjFfyY9KWhaMVQlIPC/Yw
p4920
aVHnaqp1I9Zri2kuj5GldjOg
p4921
aV1A0BcGStf6IN7k0mT67/4A
p4922
aVYzc0y7/i42wNMFnxl/NEhQ
p4923
aVRvRagh4+4+TTz2vSC4z3gw
p4924
aV3HkJnJC8Q5NOYmFp4QX0Sg
p4925
aVfqQcYXsLkg5MdNDxrXqqKQ
p4926
aVEaaySrZRP0bhUCgb10doUA
p4927
aV3ATSlzwXsvNlTurDs7v01w
p4928
aVRWLPvIdHXdSdW94+97cZxA
p4929
aVvM34OFKDgz16g0iqXlFYjw
p4930
aV26gZQFuyvnVlaGlZz/LQQw
p4931
aVgpavD4QeC9NiXPjltx+gLQ
p4932
aVduD+PaxAvTzLu2m/c3naPg
p4933
aVek8kOuwVV8x363sF3pJVvQ
p4934
aVPYx3FTszINAM7LdMFQ1hEQ
p4935
aVh7BG/MwQsP+NTIdv1LX6bg
p4936
aVIa2Ywocfgf4i8M5l9SW+Xg
p4937
aV5hn7M5uxMuOqzXkE9YlitA
p4938
aVz6axZejyV7Cvn8+qKT67qg
p4939
aV4RYRGCZZ3/qV++kc3r2pRg
p4940
aVJS7hlUybpA9eFszLUIRmOQ
p4941
aVjrGGb3gcZyH+RxnIjnonNQ
p4942
aVDaZKRIf4Su9BssCvw7C2GA
p4943
aVMppNg0Ua/YMDYNgZtes7mQ
p4944
aV/lQsx6mGIjmaCpb53qZ/cg
p4945
aVaK028FmDQ6AkOM2qO164og
p4946
aVDKunnYwefVppZfvQknR3qQ
p4947
aVDmSmFrneOQ9q27igDZytXg
p4948
aVhd0aTUFFV2KPuWVYXnzNng
p4949
aVdqsSJDCe3zNuMhJ+o9ba1A
p4950
aVVThb0MPY2UB5X6mCI8z9PQ
p4951
aVbNulUzqgDwcADUDKuKtgGg
p4952
aVtHjU233oSL8vBEfRCTF4sA
p4953
aVn/PSrvCfGDsE1vx6sv28Pg
p4954
aV7YBT/LLSY7NXDomFpYx/cQ
p4955
aVgEK3FH1k9178vlON1q5Zmg
p4956
aVqNqD8utbWpcyLD0vl/ZsZQ
p4957
aV9VZQah2RA+W9wHS2EC3iMA
p4958
aVaumvEuvMQetk283VNRnCXQ
p4959
aVoo+93bzS5zPP7jMrai61bw
p4960
aViCAvyOqmPR13Y76N+12L4w
p4961
aVDKAPqG0u9YaHiDtupO9uUQ
p4962
aVihUeDUciGjkNUQD0exAyXQ
p4963
aV/Ggq+9ABAjWjBFmpJ25Txg
p4964
aV6283185776
p4965
aVqoXHqBjqsXElTvTK36ZgzA
p4966
aVhC9bLu+7pP67dyMjrx/EXw
p4967
aVEaBon6sEeGsNFyHmUlD4hQ
p4968
aVasMO+R23p3+rKPN0SGF07w
p4969
aVdYWlbI0nfARgQpm1a3dG6A
p4970
aVPVSDwtV+Dvop1Cs9lRZGBg
p4971
aVw+qjsMPwa14wCFb3Qy3rXQ
p4972
aViW+cQ/1X2cMFR+oKr76Ixw
p4973
aVJC11riEyEqKYPe9Bck3rDQ
p4974
aVCtfQL+wyzZN0gz9/BVAEgQ
p4975
aVD2VNHXmt/J9daeoz2UkU4A
p4976
aV5zSvEXZazi42aTGu29OKbA
p4977
aV7pmyZsJtfHT9oihotyfygA
p4978
aVW5CHmrsZKsfoDwyX6g2LdQ
p4979
aVqBA7rUT/aJQHP2GQJJW2iA
p4980
aVfN2SfK0kq9EK2QJzcgEqSg
p4981
aVBH5pGvCB/pBX6+JBP3s2JQ
p4982
aV9BmSqfKh2fiyaGQ6udC15g
p4983
aV9CW7ZuP5/L2PBjpPz6hM3g
p4984
aVoy3kpBIrvqEQvE6aVo+3ug
p4985
aV1Jr69QSXMZoabOPmcyUDyw
p4986
aVYso3eY5hdxmP0ZU4y8J56A
p4987
aVeVa+AfsZlbWZG8OWohxsHQ
p4988
aVfNDekPYabjmQQaDlsNBDZg
p4989
aV6tPjszWDodrNx9CwEZExqQ
p4990
aVAscSUzEa4j3SC+Qr8L5Vqw
p4991
aV/Le946mCcC97wKMUD49DFQ
p4992
aVrTg5maMFpbGHyqZmkYq/+g
p4993
aV82946
p4994
aV6Rm1NeddrnHAE5wjT1x9sQ
p4995
aVQNMblaO01vwjKClvEMn9iQ
p4996
aV2n0UGSAuJJXn0m8a1gE5/w
p4997
aVfrNMAPLZ8vjONO+bEBKD1A
p4998
aVH6d3xWz2IkQ/wn66SYixZA
p4999
aV+D6A7ERW2J68w1INzLtIXg
p5000
aVECEH0IdiGFBBGgN5o28roQ
p5001
aV5dIac/h2zOCEG3mHFlvStg
p5002
aV8hqlTVgyOukxnXd7PwAZgg
p5003
aVLay7IRdX+mtTUbi0IyQ5Ig
p5004
aVdw3v5wzw7b3HEvYF7eu1aQ
p5005
aVvsvdEbzRo9bUOOghEdy+nw
p5006
aVDyoV5jGKmCXZhp0EOMVMKg
p5007
aV8R/6MtYcB/arhmE3ZnBLdQ
p5008
aV4E0dGtZvP+RJ9L4GXrER4Q
p5009
aVbY0GS+4QBYC4qaOaaffp1A
p5010
aVWXjiWycauwjqAF6sT5w0EQ
p5011
aVx5Ve3banntM1u760WN4BBw
p5012
aVRwOOP+gnPYJIhTfRDWbogQ
p5013
aV0KjUCVrkYFk5eMy3kzUvCA
p5014
aV97GDQ5xml9TG1XoE45YbEQ
p5015
aVXPpyoyo17++vKTvgmZnbwQ
p5016
aV+PBpndngVd6opqUvoHRUGA
p5017
aVYOuc7Yi5Hiq4VqEzkiMTHw
p5018
aVcBbhHp/RszjBfgYYvW7DHw
p5019
aVNUu/HCBXC9/CfUeZ8M54pg
p5020
aV0gToNOqlTvhCV2OwN2DMgA
p5021
aVGZ7pZz3OA6YdChlcCB6nfQ
p5022
aVWonvjstaHDnoKrZ/Gz7vSQ
p5023
aVvnsDvAt7u1gnHna4kAb5KQ
p5024
aVlZOoXHwN4xKcx4urrli68A
p5025
aVLe1FBx2TBsU6v8WgOQEMyQ
p5026
aVeOPh2S2LyC3RCQjvVHUkUg
p5027
aVGhK+lMAa606Fvm+yU9zEbw
p5028
aVfkm8bHIuej0eeFR7zxalWQ
p5029
aVTBZ/GSAmrnsamf1WnKS97A
p5030
aVL9suUx2fKZECrRVHMeZW7g
p5031
aV8feuPxhHiJCp+tVm7x4UHA
p5032
aVU9sdRTLk/L4PuPREOem8aQ
p5033
aV1xEL6UYPS4bc4xt9X2im+g
p5034
aVMXJv5zztRvMxZIw0LrSYWw
p5035
aVuv/AgWLwKp7QHpZqFP1yAg
p5036
aViAm3r1pahhXNueC2Xf6kag
p5037
aVIUq4AcrCzdvcdHaksqNl2A
p5038
aVSJNVdtI3RBDaat5xa41+xw
p5039
aVMNSb1p8zNYj3RSwn4vS0aQ
p5040
aVJTMkxYg2/7XOo4VHZV/CCA
p5041
aVg80Pujbqy4HhGBd6OQwxIA
p5042
aVL2quf99cHPxOWeFm46Kn9Q
p5043
aVxmgcxPkBNpoNVSJ/9N8G5w
p5044
aVkz8OAa4b5whqid+LcLE/xw
p5045
aVzPRElW2Cs2Hgz3L70Y6miw
p5046
aVnzpdJj3/0KZMedi6ho3YaA
p5047
aVu/X/z/xBgoybSUID9gnSiQ
p5048
aVhWRUBr+xb2jGF4wthNoEng
p5049
aV7vz79ENDdffUFcvXF6dYDg
p5050
aVJVji+WXmN1EYmxGAdlkOxw
p5051
aV5D6vwOqauOUguzGOH7aPww
p5052
aVThib4vjpw+5bSf5I92av0A
p5053
aVTqyd/Dqwyfjz74iVyBTUdQ
p5054
aV7d5diylvTvD5VH/jOdBeyA
p5055
aVoF+wzhACxg0daRqy7niMQg
p5056
aVqtbSYhjeNAQEl66Cs06oIg
p5057
aVF7X430MmVjfY2V795bPmOg
p5058
aVZQYUPaGUF0N6XBlLo0FE+w
p5059
aVOnNbJrnsIKdpeF7P4dQzWg
p5060
aVwmCNitv5JwZ3FAT+Erl3Pg
p5061
aV7wu48mi9cMnfDOcLWr0Xhg
p5062
aVkWzRDxdKNUG7rjkFd7l8qA
p5063
aVI3PPu3O5ZlAWvGX9NkM6CQ
p5064
aVPJ9ThEb83e6v9NKGAvogPA
p5065
aVOtwrW9X1gvz52cC2bO2ltQ
p5066
aVZCFXFTyB7iaD+iR1+46yPw
p5067
aVevCsIu5tgyNxcMb3nnkXzA
p5068
aVYy8xcDXlGey0PdDxvdQ4HA
p5069
aVA1uODG5UUQzBUzXvYpQWmg
p5070
aV8Jsp1s/DtrWelauoUCpvOw
p5071
aV7pqK1WceqtcerNE4XPs75g
p5072
aV6hvqRP1r6p+DaZZeNPcGeQ
p5073
aVB5jwk2T5qpQD0bLx1E4yUQ
p5074
aVVtruep6LHbNQ0MJDsKbHRA
p5075
aVOBvSusF+xYLC7SoJULx77w
p5076
aVZJkhnoYuSVuzHJzPKxI0aQ
p5077
aVt5wbiRboXfBumkPs8DwO8g
p5078
aVfw7UPknAdu7cvy1JDtlE2w
p5079
aVcQx79YrYZWKsybvlReFcUg
p5080
aVARO4/3l1/ZPCMUAALq+CgA
p5081
aV0Bhu1t7xlxIrAv+ef9unAQ
p5082
aVlqmaavxilj70VjQTmxvb3Q
p5083
aVSB/eYCfUrEyVNLd2D+HcZg
p5084
aVNB/XStFlVYkYKuQ98N7VaA
p5085
aVU9gR/ZD+PSILAlkJ6RfY5A
p5086
aVbTryhdGv1DE8Qi4+YC0xlA
p5087
aV7pc5+vLf7RV6adZs86SeYQ
p5088
aVe9PO+IxcpNTfFpPGMhS90A
p5089
aV/rnDg1owU6dgkoU77K30AQ
p5090
aV4jybCQmEQr4T6gGfo2osYg
p5091
aVlChlvKIeJNxDRf4mot9DzQ
p5092
aVWNVPddF0/Nn/y722OLMSHg
p5093
aVQeNI7DK9UW43iAtUgWYBqA
p5094
aV3pLS3ruc1eQLu5nw76H2hw
p5095
aViaP20KOLFwEmDHM13VcRew
p5096
aV5I/KaQSPp4P6M4LvdfQfvA
p5097
aVz+eft1LmpO/PSSpk837pqA
p5098
aVklMhexD5z7SMA4+PcRgcGg
p5099
aVClZQYbGrlhigSl1GZ05I3Q
p5100
aVbPHG43+r20ZmiIHDw34d8A
p5101
aVnfzQEMYvn0sgcyKxzjVNuA
p5102
aVvETYfpoA+FhBercnDPJrRw
p5103
aVob4xH5lo652AH4n5ZZJF2g
p5104
aVdjwwssN6sEZRsRxZHq5hgA
p5105
aVrYx/5UiPvbuasjf3VHGZyA
p5106
aVeRMO1VQfMdoezEbpjCiTeg
p5107
aVLZSDiPUkjthzVK3XhiExsw
p5108
aVCDZeHYrHF7IIe0yXUHSbqw
p5109
aVJDO5KSOkPWso/SPdinDwUQ
p5110
aVluUUnI6TojK1qGKApVRiLw
p5111
aVZWMObd9YXGjo6VOTTkbFhA
p5112
aVJKu1xff8I4SYUUcU4ayo9g
p5113
aVV/7cwP3jSkjZydnO1B6AOA
p5114
aVtFVH291h9IgwMBscQ1I5DA
p5115
aVP1bOFosmEJQ764KKtHiHPA
p5116
aVez/KEM8+9szdH0QGosANTg
p5117
aV+/ZXX+QUcfAQbqPqWcDLNg
p5118
aVQfNXeuHo0ZenXY0zqeSlAQ
p5119
aVnrMN3k9eewLd8VEj6w5HJw
p5120
aVNm1GRwN/c3HbjsL5Cpbi/A
p5121
aVlBa4QOSZwgqxEE8kDE9XLQ
p5122
aViqJrt99Q8tPHiDqHthJrAw
p5123
aVzRy1a2wq97if9HMjB6KqaQ
p5124
aVr8QfcSdFb+nZTd7u7RNhQg
p5125
aVGxdsGbf3UXhCLXL1V5GuFQ
p5126
aVxHup/2BNpCa797rRP01FYw
p5127
aV9cvXmmXeFlRXmmB2aW8pBQ
p5128
aVBRdWGZpZSCZz403oC6FmAA
p5129
aVe3GHKZUs/8OF5cc5JNCcYA
p5130
aVibrPXiCicztKo5zJCoaR8g
p5131
aV8JhOU6Zi8wDkKFIbmqZ99w
p5132
aV62dhJiBykRzQhUAnuSrWdA
p5133
aV3qbjISNF3F8PAZlMy/+Acw
p5134
aVHSUs2QAtevnRdRpZ5AELYw
p5135
aV/oHsRBOMboTB+I1zbpXphQ
p5136
aVpoeCBTxahdEPM15j6R+7Fg
p5137
aVX30btatJO4HH83dq6IJxyw
p5138
aVmAGPaFW1qkl//APsPD6wgg
p5139
aVgOsVBKXNE2SWcyCH5T5sDg
p5140
aVCgqjQXuOWE3jfPX016f9Ng
p5141
aVaW19VG1MCyStNo1deyYURQ
p5142
aVeDOS4s2wjmk0buS7K0l7vw
p5143
aVTpUKd0F2noJGuSsM3jEBnw
p5144
aVM70GkZJ0bepa/waY9H3PkQ
p5145
aVFDVLK8S3cP28NfG6NBkWpQ
p5146
aVL4iOr8xMvbodZnUZpTqS/w
p5147
aVrUwaEnAJZSESrUvEOzw8yA
p5148
aVlax3JhtFiNjWw5TdgxOLqg
p5149
aV9tdbNKrGZhgEpU1CZvrAYw
p5150
aVJbQV3Dr5SUovUyyGkT0afw
p5151
aV8dMnRXSTqzaafv3wgf/XZw
p5152
aV1m034CbgSzq3jyrHmpCELA
p5153
aVE/ErXMTq8X0nUG07ezSvNg
p5154
aVNdvzsSv5/rFodh1pe5iITA
p5155
aVH9HDDNYuNvV1RNnbaihbdQ
p5156
aV0aEEpseEGjc78a4INtpa/w
p5157
aV24q5pfMn78mpe80knwIhow
p5158
aVgRPcI7QpmzYV2jezMNO72A
p5159
aV1aA4gzFrWl2MCQD4znQ5gg
p5160
aVen0Tz0kV8mDB72kVxhu7HQ
p5161
aVGDBJlQRk9hONSv4gPnV6/w
p5162
aVrhoh008cFGzHdp9biZNFuw
p5163
aV/1reHwMIH8rvEzlkX0YgFg
p5164
aVs63GQMKM80oqoEJQJ8tKxg
p5165
aVOI2+lusYdMDhJXIlPxLmNA
p5166
aVZyNFeeg6SqhkvxWh8o8c/w
p5167
aVaE9BybRClXPCPGv+lKztCg
p5168
aVSLq62kFrcHeUW3uIX4Oo2w
p5169
aV69vdZrSponDREL7raHK+fQ
p5170
aVnEan8x9EM5hOyCaJzRJiNg
p5171
aV15AkSWNtCCqhR7cmZtk2Yg
p5172
aV/E2A7R0+TJHbEYBUZKvq3Q
p5173
aV3BER9X9PQr2DisjxHhrFlw
p5174
aVL7VaHaAdV2N5HBUlv5wr4A
p5175
aVylAQrxO/2BvfYAOx4VBKtw
p5176
aVUgCEWNaDM7DEwNQ5AzBMsA
p5177
aV+eYkfsP4XPwTo9naBZIicg
p5178
aVQX0ZK1pdmomInqt0k+cOEg
p5179
aVT/dGJY0J5Mpsvi0tpmHHEA
p5180
aVVBXRq/5f+Brmi7QHuU7iGQ
p5181
aVaCJ8I988b9+zyv8aq55DMA
p5182
aVAWggc0dome5tdQLuo8Bqlg
p5183
aVdE8XhQwhDmi09ZBqExW09Q
p5184
aVuVWGmvpUqhtWy4EeCY40Ug
p5185
aVO8W89XattbSauXDSMRKTGw
p5186
aVI4Q7d2O1u6W1hbiqFjoj2w
p5187
aV3aMSMFT9m8of978SfsWAMg
p5188
aVcYjm4OG2ZJcf6ZLzthJ7JA
p5189
aVPiCjJje8P2fQB8uqb6vDxA
p5190
aV19lOAu27BbsN6gLkRF6dug
p5191
aVZ3mLug6eLoUe3VyWk6sFyw
p5192
aVY1Fu2cqGMms5Q1dioppuHQ
p5193
aVibZfsVslOCITkQVMtqQiNA
p5194
aVs92zu0+86V4mM29lPDP54Q
p5195
aV5KPiK9yd4FBat2oHUzh48w
p5196
aVVgIrQ0D1lV3V4Pi2WnU8BQ
p5197
aVCjNXuKuzQa4CmtS7arQEEQ
p5198
aVi6w5SaSup4zXNsDN0SRsuw
p5199
aViEGk4i9FE4y2X5GmIh8ucw
p5200
aVm5CQJNykYZdkaA89KwHNwQ
p5201
aVhpcAYXeRPDtgXHGiRORL+g
p5202
aVmLtCTUR9w0Ejrijxg+7DGg
p5203
aVEqCbm16+6S005bP2Uvjg3g
p5204
aV8Wh2j5vkvd8vYrMkLEtNpQ
p5205
aVCb/MtpHc9m04KEkMqDMhZw
p5206
aV3/eLOu/z9p5K1sRoo9OyHQ
p5207
aV9jfMxHDo9fIAtxuXYrScvw
p5208
aVUclQ2X1yLD9Ly8X+/UOX8Q
p5209
aViP9WlKg4+KtDTTxHBo7xrA
p5210
aVsfhkbV//NYg351Z/owaNeA
p5211
aVq+lhqjRDj7fD5s2dbdcvTw
p5212
aVvoiX/i/pJsGQCfl4kq8PkA
p5213
aVpYQv8ZmDIw9vQlRd0HaSRQ
p5214
aVIDLLo8J+gjgfhsvySiMx1Q
p5215
aV0em8zrsE1Lk2f+LgklXW9A
p5216
aV3Db/w/L4A48AIoed+zKUag
p5217
aVyV5pCZHzzmxuxrfIjfZzug
p5218
aViVOAOdR1fCcuWi6wzl6B0g
p5219
aVXJXW/ItFu4nT648j/kL3fg
p5220
aV4/6ch5eOmVabL81GSSNHjw
p5221
aV0USY9YgZa1yyRLAJrpr7/Q
p5222
aVODWIK82oqMbRc+d43nlTUw
p5223
aVoD/TyIiiA7irzCb+pHXeNA
p5224
aV+NK+nKVltoDbqDLfBNz5PA
p5225
aVNDHcLc+mUDNGZ4pAR0+6Mg
p5226
aV9uVXLiyQoiznLmZLX+vvWg
p5227
aV4DyPguwK74ucujjoZHj4/A
p5228
aVNkxPL+vemGW217u0ZOqDig
p5229
aVlI+LAwEd5nToT/Bub3KWPg
p5230
aVh5UnnVCNWyTUUoukCZ1DhA
p5231
aV5FecxZGlnf17oi05dr8Xag
p5232
aVO0txAOAtT90RGVNvRmWvog
p5233
aVpdCUULBTg97jC5UFJfH1QQ
p5234
aVaK8lbtQ6YNyxBG8GXsOK9g
p5235
aV9ygfABcVNnldGcinnqmRRw
p5236
aVr4tvQwM3xywxtn96IZetxQ
p5237
aVtoLLhf5Zgn0ertIbB7UcXw
p5238
aVjHAjgRVXgECEzy66KfXpTA
p5239
aVEu9VcvN/E+G0DacGh/U58w
p5240
aVcCUZ0i11T5UvSd52eEowZw
p5241
aVDrwCkbclwrcXls6iYsYP9Q
p5242
aVY2y+4jxlNtMhehO563Ns5A
p5243
aVQN/NOccWp3Xf5T57XaDfhw
p5244
aV246i06+qR/eim1c+rM7tTg
p5245
aV2IeLYyqE7LVM0kusYWQpvg
p5246
aVTGX0nZRcvAcX8c/7y/Nr+Q
p5247
aVt4EWoPnt+IldQ2xicij99Q
p5248
aV995kUY3pSw0PeeYAMUkKHg
p5249
aVH7TvAHMQX+bVR81Nq796DQ
p5250
aV/mMMBglhC/weVCzh9Yki5Q
p5251
aVeh6c6ytWQ1PvwWo56yNrHA
p5252
aVQmBfH51vq+ZCCuUXawb0Ag
p5253
aVtTUYVgs9GgPn28cVkH8SzA
p5254
aVrzlbWAfhn0GrgFKPqKHxTg
p5255
aVxBAXwPICZe0V2mNzKroPfg
p5256
aVWhoRLAT5L6sE+IaLX0Gnwg
p5257
aVYOMKkZvBFwu9MlLELLqtDw
p5258
aVv7tkWk7+6RdqsDqX0aWpFg
p5259
aVOh4szzSKCW5Is0J3icYuyQ
p5260
aVNX+SmeQ+96PcDBG5fFPKZw
p5261
aVLAGdQzPurkqiROqPqfnKKw
p5262
aVwXCkGZOeVw2+TzKeeK5jug
p5263
aVyMNwDKj4ZgKkq6e2/e7fGw
p5264
aVQmIOVryqY+tlZhedK+29Pw
p5265
aVv6m595svz1xeS6fSpR/08Q
p5266
aVBQBF0Xr3isNL3rK0TJr97Q
p5267
aVPpOAyDDRBlaAmII72ax0Bg
p5268
aVsq2oLD7+aooyUGuNEUKdiA
p5269
aV219LIAW5+XvfqY+/m3sIJA
p5270
aV/BtJVALLQh0+5xuNKBPF4w
p5271
aVkAVqLuRzguioKfeKJwGSTA
p5272
aV7zp15s+aLEIOLxJhm14EKg
p5273
aVn6+ll4GiiwIFrAa1iZ6O+Q
p5274
aVK3+JgHfX0grh1jaFjAUhnw
p5275
aVu+Da1vXBDcgjNZJm8vzIFA
p5276
aV6ONRwzWJywZRhnn43XoD1A
p5277
aV5bchHWz7Il2i7sF9Bt44VA
p5278
aV9vdjHIuUavJzGoWTzhoydQ
p5279
aVUNsJ3Sj6ER8OXmCnFah0TQ
p5280
aVNZBAK5LKf+L3XoLxnerpRw
p5281
aVXBSRCsBEj8IjnXUdBkkUcw
p5282
aVgMhzT47OseB7k6jK+AATBg
p5283
aVOkeymzn48jCBCbjh5FgK2w
p5284
aVgVsxtY/YHp5t8+1nYNY2Lg
p5285
aVS+TxrsJMe+xIExjW5XVR1g
p5286
aVypYmjw6zswRWqx2SEugjvA
p5287
aV79YRLbgMVGrDlMBdX4NtQg
p5288
aVNKUD5en6mZacOBu6Bjm7gQ
p5289
aV/VNyNJCsXZTrqTxc7Os/HQ
p5290
aV7RlO5U7Cqu0WwS2DH+tBzw
p5291
aVgr6BlTgeqnR5K9AeYqTZKA
p5292
aVApyrLrDI13k0Gtyz3t3HiQ
p5293
aVqkW5DQ/c1ZzQF+GJgGOqYA
p5294
aVJyDeBxVlwqFyCtvTEMl3Xg
p5295
aVI0zJzMYTVZ1nyazaoTD81w
p5296
aVMjJKz9f/FFyXTIqjiS/hPA
p5297
aVO91DgBgUHwnV7svGi7PNrg
p5298
aVI0SbunTYCyHx+BKAqV7SdA
p5299
aVrsg9pZ5mjMIuMl4jhsDmOg
p5300
aV6t9vVyLn6WJ9tJg8r78LGw
p5301
aVyPdoU4dRhMDtuVI8AMFZKw
p5302
aVxnbbBgUS+eVAAHrb3DQTVw
p5303
aVFh8uWDBy/Kq/MHMqD9INJQ
p5304
aVhgF7hbHPwVr/2YXPrOqY4g
p5305
aV61cDy/uvCqQvnEOkGUkVLg
p5306
aVKLAoHgPUqDpS/Dih+i6GqA
p5307
aVBjaBrP5ekFpxmptkpr+Drw
p5308
aVwdBe0A3QKMtVobMmOd/Qxg
p5309
aVsBCULyaFD9K2rD/+eGv7Eg
p5310
aVIAeb/Q1JWl7YFZOBemmHwQ
p5311
aVy99sx5gY7kZU3lRL0BXvHQ
p5312
aVOD5yRU4/QhKaIUHWRVGN/A
p5313
aVG7+ATRBmTJcDgZ/msd4UoQ
p5314
aV48cGcqQVLf0dARnNWFP6Og
p5315
aVye3YzNdQ+CwrM7xNB58/Qw
p5316
aVgNJNI2AWMEl+fUXby/6eew
p5317
aVXhzZL4wcecHOVfc/ItCh0w
p5318
aVmuTReEp1CCSz4NIKn851VQ
p5319
aVf8oH5QLIfDMNw/WeLT2yGA
p5320
aVcUUd44zaywjZtDKQof3R/Q
p5321
aVPyDPx0dF/ZjdmEuSZwU1Qw
p5322
aVDxqhRvfDSnuwJwNPfVCG4A
p5323
aVY7txzg741UGlQm/G7+Qu5g
p5324
aVYVHAVJzf3KyUaGKm+RBhJg
p5325
aVxVs7/ADKIgEGqnCbW21Yaw
p5326
aV8HyfVbHHVnxqGnn9XsRvYw
p5327
aVPb+7M+5N0kyugRGlEFGCDA
p5328
aVtFnRqHDnxt47wukmc7kHhA
p5329
aVYQnXYUiz9OJDo/qXOWsXHg
p5330
aVuEUaVXiX/aqcn+EnV8fapQ
p5331
aVs0QdEEE/QwAOdKeKezThTw
p5332
aVQpi1y2oOG9wpKWrHKm6b1Q
p5333
aVkSvzuAOGlLAIgbgysjA5Fg
p5334
aVT6AeMZI4uUK85CZ7EEzSgQ
p5335
aVarwRhLSBdt7PwOlYOLfvkg
p5336
aVIm7JL9v5nESbi4LsQBiN4A
p5337
aVOoMb7s507sqnK4H6jqnVVQ
p5338
aV4xJjtofNliTbrPf+oi7h2g
p5339
aVnE3BumOaQeEJhENR8TWtSA
p5340
aVZC71FeFP0UCpqaWzqBPgtA
p5341
aVZ8oID8QGjqA8dvN6pKkg1Q
p5342
aVY6nZdxO6DVeWdn4DXtoM4Q
p5343
aVMF0tWZ48yb9qzyuiuMOqwA
p5344
aVzYzhFbt3cP+x/Emp1drDug
p5345
aVpWKINjtnLVbC7fZtOjUJyA
p5346
aVNItzlcih1wzobkeBZwAEJg
p5347
aVlUOdHObN63SEl/WKfI2aMQ
p5348
aVRlOoRwe5k1ANX23hI7p6hg
p5349
aVvHreeXzeaHcciwB4IrmgMg
p5350
aVJZ5qbLwgBzs1z9YWjSA5uA
p5351
aVtRsNaaTBB+8nEeX3NYuPqQ
p5352
aVLPQN9PngBd7kPHbJ39w5og
p5353
aVe7d4dPVdGyp1/gRflK+saw
p5354
aVzOUbldSnLoEW+k/XGqPRIw
p5355
aVPBp3nufJ+iFbfn+Cbtno4A
p5356
aVWcZFzbDTX2wIrABvz00lKg
p5357
aVfvLO54xje2QEn+XANAGZuA
p5358
aVvS26AmLHnvfVHqF7+vJq8Q
p5359
aVXnqS1t9BTfsMQY0+VEwl2A
p5360
aVC6tth0gp1LRz+Khs+YwyAw
p5361
aVYGcNS2Tu/Ii3n8nlMmLqqQ
p5362
aVWdmcOdgemL2Y0olp4HfDvA
p5363
aVfdh24E+GUCm7v4wRATignA
p5364
aVK+dXne1LiOf4H1KwpQ7mBg
p5365
aVxHrKRl71fG3B4BQhsRzXeA
p5366
aVzMeIoVJx0j7Jq+NYJPMY+A
p5367
aVEHjCK9/ZBr8TRGvXSCJdmg
p5368
aVtkyw0u2+Z6lmGHV8ch2K0Q
p5369
aVqHUkMANzGhGdymdS4RMdow
p5370
aV1Z9XAwtK1hKMrdMTlIzszg
p5371
aVK46xd2M7Gx5GsZNStthF9w
p5372
aV10j552+g4mSl6/v+CWeEiw
p5373
aV8xzxZP4d6vaEuwyUBLCZLA
p5374
aVsWqim3SBZjLcKw3eF1yqMA
p5375
aVoEixxX8W9/FbCX8+92EI0g
p5376
aVO1+E1cL5BZEkkwBF24m1sg
p5377
aVeSMST4V93PyvvSGhaZO9Tw
p5378
aVw5DVr1Hn5HJ8OrrpMo/aKA
p5379
aVPHWg2WvgCEa0VfuRx9krVA
p5380
aV+r7Y+LaE/CGSXAFol6bR8A
p5381
aVNgeaBvL1FoyxOcyyEjyiLA
p5382
aV/Go19GEn5tks9C6VzKpzWQ
p5383
aV1cKrL4k+YMaqICligpM1ow
p5384
aVp7eZYrulnBUk49qP426E9A
p5385
aVWoRbeUKQC7aZqF8T/s1HXg
p5386
aVnfArNYNcvLtABC8rXXPEVA
p5387
aVdGnIs/nSnn2BU0JMQdyZog
p5388
aVjJAI1364RojbYszw/mD3Uw
p5389
aVRDySPGXKYdDKjSxCXw7sOg
p5390
aV2UefzssWG1ZCYxLCn7JqSw
p5391
aVHMPJaTacsYjf/FaIRD/zhA
p5392
aVsujbmBjxBxH1xDIEFf58sQ
p5393
aVtczpMViwRNBLTzQf6nZF5A
p5394
aVA37Ob1CMGlKm7SWqhUzkIA
p5395
aVepYwv2vgGqc3Um+LY18qYw
p5396
aVn7unKAlJMRvyq8hsdA96zg
p5397
aVtnwrGP5+6qQ6p6ohuIPQWg
p5398
aV36AUv7+5XcvJ+sN8+cIYbQ
p5399
aVos4I8Ii5VUDXSh3cjOkc1w
p5400
aVaNksH+GnWS5VbyfQBdo1yw
p5401
aV7o+yGBmGhhCJTc9xZRMwOw
p5402
aVnf11OoBHYgQGZHKENFeHDA
p5403
aVjG5efO61JZJPwd1GxhJRxw
p5404
aVPV9v8f1lOG0ZyxpQ4DoP9w
p5405
aVlxTvl3y2+kAGiMX1zaqM+g
p5406
aVFGGScK93LYIKraITG94Efg
p5407
aVISMCfscFgWhJycIn5vNlpw
p5408
aVIqW8IEKktaorsEUnEKkxhw
p5409
aVFj3ItKSKCHjT911OBrj0Mg
p5410
aVLHL0KpCbye/c3Hx/Cy7yaQ
p5411
aVp5IOoWGa3V+80FaPPHFsAA
p5412
aVHF/fHIfEQOXUYdgf4AAS6Q
p5413
aVkXRbxdkvgtafebWWrOOONA
p5414
aV0HzoV0YGYUrXMNWyol3gXw
p5415
aV7qAx1s1Wce9pViSbzfEvEQ
p5416
aV0LX38iDq9flPxX3dyWQHvA
p5417
aVCqYzuPFTuzZwCyxxM3OOsQ
p5418
aVR+v3WTdCU655uwVafcAZGg
p5419
aVvxAvxEImWtKKgAElUqltRQ
p5420
aVDi8neU1L21UQXi3e4dl2dw
p5421
aVbLe9jYkxWpLdwht7ugYqNA
p5422
aVFfJJd1j2eRQpWRth8rs+CA
p5423
aV+BWPkvt7CelCP/yqLrpvUA
p5424
aV0ub+V3ikv9jlINmdsWH3yw
p5425
aVyiK5uSOB3w7BkV1WsbSv7A
p5426
aVMHVILSNUbGcBGpvDSzfLtw
p5427
aVgfHIDZbPoiZrm2oNnGOD9g
p5428
aVjNELqfzfCKSAisZxMqLZuA
p5429
aVMGwL65+OX5s8DkoIg82j7Q
p5430
aV6R8Mkmaju/pZQI8ak7YVUQ
p5431
aVbrAu0RxIt5p2k2l8jghJaw
p5432
aV9nEoiyBNT/5DNeziCrBkEw
p5433
aVJbP7j2wk8b88PagUD21eqg
p5434
aVo6oc5dn1zLCDD4nR1C6wRw
p5435
aVpTTXli3qQczTGS6apoAa0Q
p5436
aVsPWaMhJlDg73VC8tIjkdzQ
p5437
aVVBlEFYxsdDV7uLZ+IObFZg
p5438
aVOPZ8kQd2nenJVIEEppBOEw
p5439
aVcgQ0aUTVDQccqbFgMmxj7w
p5440
aVZVn/QL68AT0GYXcMDsfJ9g
p5441
aVtw9nf7+GeJ+aFzdoNU8DtQ
p5442
aV/FT6OzEWHjxTBt1Z1AcHDw
p5443
aVdqxTltMDV/8mOOYbTTpmJA
p5444
aVdwxrQHF3fZlchpUX18m+8g
p5445
aVQGflKok00SsdtgcinaqLsQ
p5446
aV+a5hWfU7GMnAXC0CKwcJNA
p5447
aVyH/4M3rpwzkMm2uR3NQiyg
p5448
aVfSlgSc27L4b4jsbBxjd0rQ
p5449
aVmw/atGS89JVD+4H3J8zY2w
p5450
aVQaAcoAetYt6q9LjIpNNgcw
p5451
aVhTzOzGQO6lVqmQeWCztlDw
p5452
aV8EHJyT5O3PatFfHQDCLAuA
p5453
aV7uRlGQHdidyWMz/6YHzHLQ
p5454
aVojGYZAQ7fv7quxnQ717agQ
p5455
aVKvLqxGona8EuXZjCjHggng
p5456
aV1532o8Pkszgc1DgaYi4+sQ
p5457
aVLs63GFBNtQijd/hbXS3kRA
p5458
aVglzcGvjj+4iHioY7ARvSeA
p5459
aVMUFVpiLTXTYMXm6ZwKwaTw
p5460
aVKO9flpANAMdddHeAjBlVLA
p5461
aVTfolYC5nwFoSzsRCbSqFOA
p5462
aVrfoUj0d8wlJ7jnYhywbeew
p5463
aVtf0tICjgtnMcaKu1w1721Q
p5464
aVn6HfAjNoC/K6a8hh91Kl+Q
p5465
aV6gfE1jv9+Iq8sujVl0zvLQ
p5466
aV/+zY0aor+VV9/N++5wjzqQ
p5467
aV2HzH1gIlg/NQvpyhByq0Tg
p5468
aVPRAAWc6k6cCZQQYiDIFxAA
p5469
aVhn0FGuEKamOC4w93lkpQog
p5470
aVgTexo/VJXOwKxPtfMfmOpQ
p5471
aVAD7m8GlLzzcyC7IXJHDJqw
p5472
aVQQd3DDTeo453khG1P4XCWQ
p5473
aVgLLbb4Uwmrxi6TKSR3DReQ
p5474
aV+/TyLasLtf/Vtm4ioGcU+g
p5475
aVZ44AIPJe4cGKfRhZxFGjmQ
p5476
aVnDvtfOgiY6TioA8/h3NdYQ
p5477
aVppl8HnNACrJs2L8Ti6z84A
p5478
aVyctG7SiWeiAPwS+ClSLOSQ
p5479
aVwlad3iODAH5RBDFRTVbPHQ
p5480
aV1d/A1xHIm0dW+zta4SqZhw
p5481
aVTYxZeon+edX9387o7eSOmA
p5482
aVkuylRHYovJ3V+mOAyZ5/lA
p5483
aVxdCVnozUeIG7TkjJ/AdkKg
p5484
aV5E7eU40LUgMUlVxsI+yIlQ
p5485
aV7nF+/H+4lgf6ditMrTTtXw
p5486
aV/WEVsKPfQjMPmo3OsbQshw
p5487
aV1NM4gkClXbLrR3NnGN0YQA
p5488
aVdNizQwof5IbalBh3PZD0jA
p5489
aVoPS2q6Uj3vNxwRhOT3XGTA
p5490
aVT39pL39SjbaS2PMPefu2zQ
p5491
aVuUr5VW+nLr7e9CueUrQ47g
p5492
aV5/x/To1gGZqjaEdXCPYSGQ
p5493
aV/6TXEQSTjvWYl/7evFGm5g
p5494
aV9F1p/X5KznJpD73gWh9rcQ
p5495
aVHqdXGDn8Jk5RrRu0Shx6Vg
p5496
aVUQAE5/Wjs2mPhdtkHO6xPg
p5497
aVTKEVFDlBv8FeGgH424v1aw
p5498
aVKone5Rx9klpXKZFsnmF9xg
p5499
aV5lXnOaiOI81qiFSsbtI7iQ
p5500
aV+538ZcaXHFfCj35LTNVnRg
p5501
aVE98nh9+z6IfUTrTS1jnAqg
p5502
aVp2HDiZX/ME8H6Ey8gHYB4w
p5503
aVlf9AjFkdR8+II76gNNnrew
p5504
aVij+w84lo6VNwpC415mbu8A
p5505
aVrTURoFbQ6Riam6ifD8eJMw
p5506
aVVejrteQ6INC0g4UKZR7P8A
p5507
aVPQ/7htrYUc0w3Q0hTRZh7w
p5508
aVuEn/ZeGCLq8qRW3T1JcDHg
p5509
aV3I6J+mrHMV+60PglTNIwLQ
p5510
aVpvQGva1a3cFJXHn65AtZ8A
p5511
aVzhjiTPmFpR7V3/R0GxS1JQ
p5512
aVPor7GqgB4IwdL6wfbJVukQ
p5513
aVLp6dSm7nsuf4nbGuKGrwvQ
p5514
aVU0se245MYvXzdqW8g4RQVg
p5515
aVaoHQIg5H9Ae1W7GciSOIPA
p5516
aV1YHIjOYa72hDt1qkyhN+IA
p5517
aVpHgh4t+ZfCVBgAgTCdzGKw
p5518
aV8oTN/+IE6tqcjeQsWDmE5w
p5519
aVgWdkH8eg0/TK6pScV9wqow
p5520
aVXUA7sJcTzWKK5pTKpunVWQ
p5521
aV8mDPEmUFvIIimCRkWu5fUw
p5522
aV125/Bib6cL/vj6XLfIWZZQ
p5523
aVae76WBChUu+8sw1PwQsRLg
p5524
aVnpCX63rMD/JvxpvBoiWewg
p5525
aVMX5NNgZ/sH60IM2vuAREhQ
p5526
aV+DZibJqsDJEpFNYIS5AdIA
p5527
aVXhnpogjPIJM10FhxKg9y3g
p5528
aVm5ZrfiuSw9wouPhBwihPYw
p5529
aVQNij9DlkYSHcQQfSCVw/Ug
p5530
aVrNVcrGffB9T2EyZQ7l2gWw
p5531
aVt2Ycluow1L8sh9Ow/7BX0Q
p5532
aVkbFqRPZyem0Z1bgAm9Yogg
p5533
aV3revwXx6Gvfx/RKhEF/qNw
p5534
aVpkUZOORP+myMv1DamtiqdA
p5535
aVw5s1WFsXv0ISq0utPw4JHA
p5536
aVMWmWGRwuN72UmDR7FtNdbg
p5537
aVz4FRPgTJHUg2qQcJg/NONg
p5538
aViJAW3EblFvQQ08NiDCumuQ
p5539
aVJL8t7UhNEE9Y1ZVZ33u/bg
p5540
aVDj/12hnOoUanTjFJQ0e2tQ
p5541
aVa2FzdQMUTLH/bElBdrrq6Q
p5542
aV1jiPE3VuTa8BCWmCFN/qxA
p5543
aV2Yt/k9FlPQxlAAiXRDyCHA
p5544
aVVv46oA4lQGyd7PviBXtT4A
p5545
aV+WzGNfJ0hToASVGFqwx2cA
p5546
aVl9i2OU0k/0omE3nkveB75w
p5547
aV5e3mj1jR+jbhMclclzMG0Q
p5548
aVqNTiPsD1aLIlrTSh17kNUw
p5549
aVS9Hb7AW+FH59LelWgiW3RQ
p5550
aV/pfKbN1FB7hxyBR/51JfTg
p5551
aVClHX/dDtvqAW7GFmzzIoUQ
p5552
aVfp+8SngjZDnfEy4E3PJ6YA
p5553
aVsmtLXf+/lBuRmIRNPYbzjQ
p5554
aVxpzYrbuNW8PwFULQauwkMg
p5555
aVWgtkGuXdsUfikgQ79SjF8Q
p5556
aV1aSVy9/xe+Ubjm0WSW6q7A
p5557
aVVmy+9xR6GAlREQmaWLT15w
p5558
aVX+kjpJrqnHqGTYXSo4psiw
p5559
aVQ+7b5QwBTlPMr6KEQw49oA
p5560
aVBLwxrCxNWnpy56VzNBeZHQ
p5561
aVC0yaQIHsp7/y3HNqo8h3ZQ
p5562
aVK4eV37N/0A63rQ6ACoU4ZA
p5563
aVuKvBywAaXJW6OsdQFPXVRg
p5564
aVisDO8FTzBlj5w7dMxb9L0Q
p5565
aVm1ivj8bI3mtNWcjQjLkpGQ
p5566
aV5K+hqsBmH6f0yfBk8/4wvA
p5567
aVPKteuvbu8o3EBRRdIyy02g
p5568
aVrmYqEfH1QX19MTWRUbQ7nQ
p5569
aVeZtjWOk5PxPkOA4L5MofMw
p5570
aVcQgaDhYYH6sS313UdGGjUw
p5571
aVPtwIxHqT4P3EcY5l8JJvxQ
p5572
aVxK85wMEVMEgKqAK4mNbqbg
p5573
aV2982YdI6rWJoYC/sHpIPOA
p5574
aV/KXneZJH2yo3DjsuFDpEag
p5575
aV7JKhi0YAlBISOToKbnwWgA
p5576
aVnojzuqwTO7V2a5GfjnHoCA
p5577
aVfYsYAzdWUpRuJmng6zboUQ
p5578
aVoYmEaB4D2GSCq0p3Av8qdw
p5579
aVCaZrdSfAS8gYd4EsdoPOZA
p5580
aV01g2SJqn6mKmoRjTFJVo6Q
p5581
aVHvqMvyb3zZgUiKau4MVSEQ
p5582
aVXNWSahIPXfKR6hm7bgaCgg
p5583
aVmJmiU0rTASzerG+aC51U/Q
p5584
aVnPG8FS8XBHKHql/2atFKMw
p5585
aVTf4+QcTgX0mTQZDcFd1FFQ
p5586
aVXhVHnFc0OxobsZ3IrPD6IQ
p5587
aVuI9IS/22NkTmdOrh0r5+Vw
p5588
aVA01H4RBych47w1in7OL2Aw
p5589
aVNBsqxfb7455a1LkxmySz4g
p5590
aVdL4+/1YFv5+kwjTgdGkisw
p5591
aVimd8T1IbVq8DmygbRogbgA
p5592
aVt11EMmOta7t0jEAdcGBRog
p5593
aVBqlXtT4UFSMTVFYOcx/TZg
p5594
aVBfZxIs5C8IfPr80emNdECw
p5595
aVo0BONHHB1Qt64Y2pLt7OEw
p5596
aVxuwSWhxKsIj2xIukyeMWsw
p5597
aVzb5tm8CGxRF2m66wyP+VuQ
p5598
aVVaZ2tlwaBM9Vm3n/n8ikyQ
p5599
aVK6kBtw7spfheeT2gQd9fIw
p5600
aVcEgmORfxOt+xtqyUKmjjDA
p5601
aV1OuKBRezsmZJgsF4pGg+mg
p5602
aVEHWZuEQJ1kRG1FcVOxIxkA
p5603
aV2zc1kDXuFBj80axrfNLSkw
p5604
aVNcPFtqNAygUK8WWwgmHTWw
p5605
aVHlJDuSWABfrZkg+/z+9JOA
p5606
aVsfVeJTYVlROe3fF4f8eazg
p5607
aVJQelZsd5QneQGhvlbiZ6qQ
p5608
aVjh5AFzpVV28ryfkRNYeFqQ
p5609
aV5Zhq+HheiKKhTEfEhAIF8A
p5610
aV5OREKM0lMLeFOwS0OUFeDQ
p5611
aVRkP0mlFLT4o+ols33Dp35A
p5612
aVAMPNxKATwaF+pYT8yuhMPQ
p5613
aVK/Xzw4TSaQns0uq6m5NfjQ
p5614
aV7Lxcm28LR9VTfu0JtIwFqQ
p5615
aVknUsaAq7i0LbvX+2919mXg
p5616
aV6moH7sID6H5NIH+oiVYICw
p5617
aV3E9gEtUOSja7ZH1426/32g
p5618
aVfPAeu499Kdm48Fr0MJUEKQ
p5619
aVnp8RZTuUAWyk5Aqfpc4fSQ
p5620
aVIflw42oreQD46+E9LwTltA
p5621
aVRAHMzUA7o/wQyi8hxbBI+Q
p5622
aVsieoHbOsOm/ZNU80uKVRZw
p5623
aV3QdsFkdjpIvEj2+IHDycwA
p5624
aVHN4aAidGomBF2Ya3tgbFuw
p5625
aV3EiKFSnpPwzwMSv3MTbENw
p5626
aV0Akb+XGp6UfGP6p2q/k99A
p5627
aVlaPFRqfkD8phEwrWuBCauw
p5628
aV4lgvm3yi030f3ZJLmwxfEg
p5629
aVummrDcEaa5edIe/3AsA8bA
p5630
aVXo/7SOjcgXys6oFoxd/fjg
p5631
aVbfL/1LNJxncYA0Sd9xixSw
p5632
aVDMkUHP9toTkhKf2EmUyLFw
p5633
aVW1FhxBuGWZ8TiMRQR0JcBg
p5634
aVUs/hvkoJZbH8avKUlqpCMQ
p5635
aVWWrQixj5NPmZ6GffD0AeHA
p5636
aVwLvUHk0fb94VRPuV8BtgZg
p5637
aV0HYEswc+tQZemvfOGN80eA
p5638
aV7khu63Wfvp5diQi1CfBk6A
p5639
aVGccz90RUZbz8LTptsc+dIg
p5640
aVGCqMuyTZHryb3dp4OqUYhw
p5641
aVQHL9b8rCNnWFpV///OslTQ
p5642
aVzlFCqHA/J1SJ4J960UrxUg
p5643
aV3/QV0NBH/p5hfTkRlTZy+w
p5644
aVBB9dS9CXxTOmNXMFcrsNeg
p5645
aVo23wjtHU5pjGgg9aaSrmuA
p5646
aVYJbToUH/Ilvb4Nr2Inj3Pg
p5647
aVBRKGdKLCbwRMR8WOKlt1ZA
p5648
aV0sLSBcUDaaXvIUF1/nr7TA
p5649
aVrC2rFNAkP0POtAjcNuFo+w
p5650
aVWItF/rRe2h8VaLHSPfACAA
p5651
aVM6JP50VUfBickMvmun8+EQ
p5652
aVXAF0+3bzyQre2DwwPjQgxA
p5653
aVCTQW2digexFSsPDBjEe4VA
p5654
aV5QVhff7XX7Uqj9K11HYbxg
p5655
aVwAXwA0Jdc0ogljBBXATYCA
p5656
aVtiWQmWGg6ODq87xjn7GLng
p5657
aVlbWecuXxWSBku45KePY1Jw
p5658
aV+6VaQ5OGq7BcetRcfgLIxw
p5659
aVIEN/qnuujQ1r9NtB/u0lvA
p5660
aVn/GgGJb64H3c46ex3rZL8g
p5661
aVmMQjNAFEKveCJ+dZwIJeQA
p5662
aVv5o5aAur7SMgl87Jh2Da3g
p5663
aVNlznwRb6u+Z2DeWwhZ6GSw
p5664
aViH+P0JyocojwzBFh2lzgxQ
p5665
aVZC2+EHpw86B7KY5XAdju5A
p5666
aVotaFe2YC+gRwTDyd0+SkAw
p5667
aVM8sExdJP+QzZi8jWfEhsPw
p5668
aV5zM5FjH98SuwRV3RIhkzMg
p5669
aV7+hGNxXx+0rxYc+CZsrMxg
p5670
aVZKc9n49Lxp5YKJjM9FVxVQ
p5671
aVX8Dx2KssLcOi40HW+lMZQw
p5672
aV383sE/E86lfzSk4REVD7Nw
p5673
aVy7dTsGP2m9RRtwb+MNOrlA
p5674
aVdxnw0DrF5BeKCEVCDCLU5Q
p5675
aV1iqBXlm2iNgmoTpUauHa7A
p5676
aVGQ0nywi91EI/9xQjs2PJCg
p5677
aV/o9PHqbg1NCh2sSuutI0lw
p5678
aVtrFe7sKISx4b6hJ7QrfkIA
p5679
aVTHoHuFNMZoC2IUY9w//Hxw
p5680
aV4kt2FoEo3FAz04Sz3LTI0w
p5681
aVGamsiu8obErx9q6DS6GKMQ
p5682
aVqHcwKoggQUMgKpCVnK3maQ
p5683
aVXmGrb0dS5vRvMIXGZ+t0Pg
p5684
aVDaKbKfaakEYK9p4cMA6mVw
p5685
aVRUTN3tT4I/wexPSg/7ZU0g
p5686
aVy8tb1pi06iSO1btLQVfKog
p5687
aVGzTiE9ypZ6oauVhdMgURPw
p5688
aVJ4M/A++v1fMTEpJgDibO9w
p5689
aVCVsaWvq5Mgm/giHl8H9HHw
p5690
aVOVeMuz3kTG6qhQHoHiWDhw
p5691
aVh2ZZF72MPkIJW5IouvXATw
p5692
aVslWARbIINJgKKx4KfM1N1A
p5693
aVAxbrPYn38/6IcBZvoVL/gA
p5694
aVeksKGLeQZpVG/p0B9N7liw
p5695
aVlEA0aTUwuBq9kR5NdfnDSA
p5696
aVJ56Zf2S3USFOg20K4csP2A
p5697
aVOlTk5/LshpUogB6dcoy9cw
p5698
aVopz4eBnTPsqF5urveohnqw
p5699
aVkDanfwuhCPXwCjVTXZIvfA
p5700
aVHLov8MDjmNHLDlY0nA4ndA
p5701
aVeOZsKkPh2zklZr8AXvEmsg
p5702
aVgSGBr7I0ax5a1CqaVuc3BQ
p5703
aVItQzM5YnuflRpsTYb01LXQ
p5704
aVoDJoKCfHUlbO4bVEklK83g
p5705
aVyGTt5D7fx9DIrD3z8Fw1jw
p5706
aVUGVbTVG7RrfI2/LMrGa9Iw
p5707
aVU9/cYQNQ0IXkBdj/67H3fg
p5708
aVWhFrwBIGupmk/pyrFnknpw
p5709
aVPVpTSBOVBGp9Uz8cUuUzOw
p5710
aV137JiIyYIam1g69dPnF3cg
p5711
aVD/7M35ux1iKrXflbc/qXbQ
p5712
aVUrTwrEAaR1YxYmHKX0Mpyw
p5713
aV/7SDMcUg4HrHoSaJ2l31QA
p5714
aV0udWBgevq0I7oAmhBRrJCA
p5715
aVLhBJ3D8WfiHlYxyjvOn2Ow
p5716
aVPwSFG980HSc5/PWLEh5oLw
p5717
aVCmkkK/4aK/GpWFtwf54Aig
p5718
aVROoAZi1qxWoxhoE7l7zeYw
p5719
aVhog19w4TICXM9Hou4lOLWw
p5720
aVJaEUlMKr4EizDLjc816fTw
p5721
aVVIMi0NoaQJkVAjNaAb+uzw
p5722
aVTO0JBqxGHPG3rXzA1FNN2A
p5723
aVSgP75/XqXjQUtxzR19kheQ
p5724
aVh22MJAsXn9Jjc3mcJwrTvw
p5725
aVigvhUfnIs8in/SlI6b2cug
p5726
aViLkAcMo5GAEzyTfaqo0EKQ
p5727
aVBx2GwpZxUe7GoSDtFMYF+g
p5728
aVHRl8JMFxm9eqfQ8DWux21Q
p5729
aVqG+lAO5oGkC6cDAeUDUGhg
p5730
aV7DryAxN9N31qqQyeqrTNHg
p5731
aVY4d3UyPRPslhyfiKu7b6eg
p5732
aVr5HFsGGrWS1nIpVdT71SKw
p5733
aVBntV6oYyBZtWs5oqnoOimA
p5734
aVig8xjhPcLtCjjZPTV/bcJw
p5735
aVFBLGMmFNAcxKXNWfZTwx2w
p5736
aVEWsoWAfZqyZUw/0ixPTAUQ
p5737
aVRnAar1qkhqUocyb+kSnAXQ
p5738
aVZsmQxnKCdjRdw4upKnbn1Q
p5739
aVYGtHemHEcEgB28iYCTwA/Q
p5740
aVTQFdKQ/lf6QNuktvQ0yLMA
p5741
aVnt/7YXBzNOGwg9qunXsasg
p5742
aVRuGkg4J4LAzlT/JfpSZEVA
p5743
aVMqD66hRuRcH182/4AvOxhw
p5744
aVra/fiNkt8yAwT+a/Bre4Hw
p5745
aVmbnVa5xJ8csDsl4eVvEixA
p5746
aVlXnVW6VIsX+hhVat/XCtNg
p5747
aVakXjk8ZDWXMJ5TPWeKQ2FQ
p5748
aV1Awf76A1Wxa91R4ZMs0ghQ
p5749
aVt6mFfA8OmzMb5khEQsui3Q
p5750
aVjrYNboJCl1vO5ywytU7oIA
p5751
aVwtxVTe0Cxq5aUGMa0cyP5w
p5752
aV840nfpjonl8fBJ6zZoS7Bg
p5753
aV/SB9fUaFpTuILSjG5lm4Pw
p5754
aV8jqrex9NMRVvAKfPXX2M2w
p5755
aVOwPre4y2woyjPY3vvQQw9A
p5756
aVjL/h9MqRxEf/73gYSq4yZQ
p5757
aVyQ2kykapXp0blfi55P/8qA
p5758
aVlQIy1RSj+LlDUdvvvyieig
p5759
aVkkK0/vC/zaR1zwXxZPu8Yg
p5760
aVmSGI+zV/spJOeNAWp/7s8A
p5761
aVUcAAaKTAvvynS+xcUj9ObA
p5762
aVy9AyBh6MW+74+iXa/ToA9Q
p5763
aVhd4YbD5fRZEMRr4PBwlUVQ
p5764
aVh5rqky2fCsZpcEUjDs9ZgA
p5765
aVvIw5naDiMZWV0gS+RcegMg
p5766
aVEbuImhu8+qhSgG5p3dBUiQ
p5767
aVzaeJugQlx6rfFr3i8iYbDQ
p5768
aVirCkL6YruORxTuOMNKuZSA
p5769
aVYOFnVN4em2V7kkGV9v1Akw
p5770
aVwzwd+TkXBGBVjHnuDsIHww
p5771
aVsF8LF/VLpkE/Rj1vTfYgFg
p5772
aV6zg0evE4ipVjhjK7vdt+dw
p5773
aVyjywYDisSCJPFqKpqIZTnQ
p5774
aVQbTU7nMouAm+QjQB/hEXSA
p5775
aVx3z7NfL5n6YGNSPpney6Bg
p5776
aVxjH0hHeRT6oEXN/Z2xC8YQ
p5777
aV44/Q2Y4lluNxeiWjFPAVbw
p5778
aVCan0bGtjxiu7f76qd7ZMWg
p5779
aVcZrbXilogkqukg7imqjxww
p5780
aVuJcc0SNtGLr5m8bORzF8FA
p5781
aVRHJDo4BT1R647zH3mB/9kw
p5782
aVMIwFj4uri9q7ARf24a/QkA
p5783
aVaWjUD8+e94KghzBH5HbQyQ
p5784
aVK4ldz2ZKpZZfmRhGtxl3jg
p5785
aVbKj88p9s6nuw+vJVDbvpdQ
p5786
aVOpJolGkzZB0vtu75BuZ8HQ
p5787
aVU6ADWToFr7gAxNBo8XseIw
p5788
aVrLJEJTmTUT2v0175PfkQ2w
p5789
aVLf3MqdN96Skp/sGPBTMxRg
p5790
aVdxJUBVKw5qGta71rxxRjiw
p5791
aVCBDTKprg3YMo9hvpYD6H9Q
p5792
aVlcv8Nz+4DHA8zMvCSn9yTg
p5793
aVlvrMaNI55quWjH31J7LvxA
p5794
aVlLi2YnTCvnGuPSw8c2Vs9w
p5795
aVFD8iAALY161oRz71GB8fVA
p5796
aVv0xCi0/aQacVN9RCMfkGVg
p5797
aVq5BzYA904ZxqbiozUY/lQA
p5798
aV5O08womHtUfpfb8l9lWI9A
p5799
aV2FFMU9bbQ6XM4mXM6oh37g
p5800
aVL/Wd5tPWp4lBO3L0mRhTaw
p5801
aVCBt/tAETPantO0fB6ibj8A
p5802
aVi8ihv/wYcUsA+lRe6+iMYg
p5803
aVrJahIqM1VgL+VE6rS1nKEg
p5804
aVLxELxst2YRZyKRg9LHn15g
p5805
aVQaoD75d4GmHzr5RjZPlxQA
p5806
aVdkBmVc5SmoDY3AissJnIsQ
p5807
aVbOQphovliXmyGg3MOFO2yA
p5808
aV0xx2I+FfRzMVj7w16FMilQ
p5809
aV+0RW/CcgULXMu5ePEB6KSA
p5810
aVLujs/O9H0ipiy5wrmxo0vA
p5811
aV7lER/6UesZ5Et32g02Vmmg
p5812
aVE/x0g32LfVSD/HdV6BUqFw
p5813
aVUj03U6sVuq/+ML51yIb65Q
p5814
aVAGbEFli6FO6Xox3PAcH9tw
p5815
aVcbmfSANJbSE98tvR7EF5EA
p5816
aVXf54BMOCq0/oeDqh5mbOjw
p5817
aVg1rJS4e9MqYCT6w5cHJ8nQ
p5818
aV1gDr1Xef8ih/t28UIDRcGA
p5819
aVOSSOd9m/DufvmsHsJDz2lw
p5820
aV/7wh45+fnA7NDWJMBSgUFA
p5821
aVQ40fIlvv0gKPoTnTH+pRUw
p5822
aVTVrEkXi0vVMZ2rJ2toLWPg
p5823
aV+QY8S6UY6oVqP3UmeX4niw
p5824
aV3+rB43lDgl+yUtyC6a7vUQ
p5825
aVrMpU48x4XTnv/ntHp9VCLw
p5826
aVMkSOd2lC2JkiBkt96pQBVQ
p5827
aV+Irhpbc9NWE8z8TDFMzOpw
p5828
aVDjj2N1ZrneczWhuMzBpenw
p5829
aVDeyVm9BfnFnEZXw2Ile1+w
p5830
aVCZw91s6iLFO47iWmdwR2EQ
p5831
aVju9aCiBZP8Z4ljFFbRFptw
p5832
aVsr3AugaMMNA5j8fkSeMTuQ
p5833
aVFzO1XKvaOBHg3X7s6BaZXA
p5834
aVf1zt34mqimVFnlq6FvARsQ
p5835
aVSMyYQ6HfyvdwJtZtOWi5Pg
p5836
aV35UCvV7ePH+Zcd1/lTlXbA
p5837
aVynnC8P0KRp3uU8d8PML+vQ
p5838
aVPw+PqYXhC26GeXNHiIILKQ
p5839
aVF3VzcB2K5AqdB3UmL2Malw
p5840
aVdD2Uw8TmcJec4ehu7MILaA
p5841
aVXe9Gydsjh8U7SgPmtMt3dA
p5842
aVhxASr8+zBSI3mh7jrEpQoA
p5843
aVdhn0KkuDsUNa2BbPBlZXSw
p5844
aVDawe9Ec//qGMfYPg+O7eqQ
p5845
aVnv7wNz3BRhPZ9J++V8GpCQ
p5846
aVC71mm6MhFIxjPW1vaAXL1g
p5847
aV2xKlHOTSYDz6oIBPH66+cw
p5848
aVPT6ycBQVEe1aNdFdMeFlvA
p5849
aVQB0QsmFTg8kBSmjXlrbF2Q
p5850
aVI4P7Fg2vAEHoBPVYVNNWcg
p5851
aV4lPHQkFhJUhttIgUVk8/bQ
p5852
aV40Ecgz7hMWFOX49Vxe4HPw
p5853
aVSSIsRZtWFuvlvwwLu4UyXQ
p5854
aVoX5ahVsmUFnW+8dYxrbvPQ
p5855
aVywSVau2vP5rbOMFvdVsrzQ
p5856
aV+b/YixKTaPGhKMQ8kJSTbQ
p5857
aVfgop8iKBe7YY/OpABWczag
p5858
aV995/IUF5PSCV7axNheSEvA
p5859
aVmN9zxH3cAFZOh/uFORufFw
p5860
aVXDGB3TVtkziFzHxXuVUpWw
p5861
aVtAhAKKZ1wyB1ulYO+PmgDQ
p5862
aVsvK6ia5Fb0EGQys5wolPoA
p5863
aVfaAB+UBHyYDAE5UMdjcR7g
p5864
aVm6ZVFj4FyFhk2DdaIkdIUA
p5865
aV1VdBCKmQ+V9EnsdrLot7BA
p5866
aVgEwndIYEbei2N/gmzNMwsQ
p5867
aVU0BKoD71XOILWuwwSkBHpA
p5868
aVvLcta2qXWfQy+mVPJtvUtg
p5869
aVKo8wNUun1URWEUGN7r39RA
p5870
aVnu7zFZJaxWsk+9GYifx8nw
p5871
aVpjjoCR74CB0mDEhbUIWdXg
p5872
aVmi6jWo8R0qoRYxP9Nzk0Eg
p5873
aVBaIfd5syZptltXs17Gqcdw
p5874
aVV60aciVGSFY3AUiYvn7AyQ
p5875
aV7S5lDsX1VNXhaBjzQAT1fA
p5876
aVnFaT3JS3MePZLo8xCVKO9g
p5877
aVlqmmwpdSALtzWK1aq8i9oA
p5878
aVpL7nMVOt+7hKtHQe6HVrug
p5879
aVhLeipnjDf66DYgjg1yDokQ
p5880
aV8As5neLY18CYPuFTlijx7g
p5881
aV0bxGf03AwbkvuTkQApaisQ
p5882
aVtEj+TlNd+SGVHS9Yc2vY5A
p5883
aVpoWtiim2/S/LOqRTB/gU6A
p5884
aVzZE4BNuphvrrt8lw9uquHA
p5885
aVE1ydU2ZZ5/BQ9ZJW1xhlLA
p5886
aV7sYF10hFVDxN6ETtZOok4g
p5887
aV3ohZQdnani6dESe6rgtHxw
p5888
aV/Mm5d/hV7FD61NnaF/9xBA
p5889
aVSdb627cx58m5g73cy9foMQ
p5890
aVzXZYY8B6zwtgXy2gXLfLJA
p5891
aVfrirdtjupTMMAcXnxt+UuQ
p5892
aVzObQ+qrP1ru18pF6oBHX0A
p5893
aVnyioqMlRcgNcdhQYw65cDQ
p5894
aVeTDbY7kz0Y3+ohuoOiZyow
p5895
aVY0tiuWgEHlZhI5bEzl9rWA
p5896
aV7KIuVs2PFX8+67pklMt9nA
p5897
aVNPcNVa52P2IfcxgFXkzuKQ
p5898
aV7V7a5yN+eQyWmnWC2Ew3Mg
p5899
aVoJ60OZ+LeCKkj92vYOo3eg
p5900
aVN7prWRmSRvneMS59vvCE+A
p5901
aVKX/0x8JtlabNJOZ7jkDHaw
p5902
aVQu88yswWTN4vTcqU94Lf0w
p5903
aVhj4bp3EnuhdXzXCc2C9lSw
p5904
aVKo5auIrIj2xt4tGZdHB7+g
p5905
aVaqfiPx83x5QjNsqGKzgTuA
p5906
aVnrEQG/3RDPgOWuEca4oOKw
p5907
aV2hs0g6ku5PCYIX+wYXad8g
p5908
aVzFTOg3vfnoBB2IT6UmbD3Q
p5909
aV8LdGPzYNBLrGFMLh4LFuwA
p5910
aV7agOerQbxmp4flhbBOgLhw
p5911
aVQ1wMNadv0MqRUDF/XFX2sQ
p5912
aVKFrowQqgMOyo+RNMm1ch0w
p5913
aVq+DlTlMIUTCkNjHeMr4HeA
p5914
aVrufb2BsUD8xoyXNyNrkpqA
p5915
aV5e0IQEbduRKJuwuuTZHWNQ
p5916
aV0pcDMOgid8pZ/quh90z4qg
p5917
aVfl+Nckwy0K07XnIDheMitw
p5918
aVRvexArMDGgCM4xnfEW7W6w
p5919
aVwlbLAhqAbwJ4KiYhGUD26w
p5920
aV4Z4s8a1JDXXmkEwvGPUAdw
p5921
aVZwZKCd8wuTCyZbpbOVTdvQ
p5922
aVx42RbjdKZ8gS+OFl5JoNbg
p5923
aV7v3ZoqHkHdvIESDBH7AkQQ
p5924
aVIfvQprg/J9XYecT76Md/ww
p5925
aVeVXFROVOSccSqbsgQekrkg
p5926
aVLiD180oLW0bKpDpZFV5Shg
p5927
aVON4Dbr0qTYTkg8EFl2OQqw
p5928
aVrGB69wHj5FKGDPlt0KUJzg
p5929
aVzKm1tKgVMHaAYgnNlHrg9g
p5930
aVg7QJTSXF0qxo/ZKbDsx2Lw
p5931
aVF4wVa7B6A5niUnrOLQey0w
p5932
aVYTaGaZC+z0XcWvY6QzRq3Q
p5933
aVykekr4M408uu8KT/yP5mjQ
p5934
aVf7RWmTKAkaFb0zxwVu0v9w
p5935
aVuUDA1bcjxzKMZJ3YmDoQ8g
p5936
aVU0LWj+jPAQxBPjrXFve6Fg
p5937
aVQk0FHgcMaDYfYYGws+AQ3Q
p5938
aVBcKvE53e6SEnbXhQc9uPRA
p5939
aVHCeepHwUxjbgfPGc0/2Y3A
p5940
aVWc8G3TsaXl45Lq79+3F0EQ
p5941
aVMCpdWTI8adGhxeSrFCvsuQ
p5942
aVbJvdj+0PkPn6trXOdq8Ocg
p5943
aVyRPYBBE9r24t8rYSAzHSsQ
p5944
aVls6dswotaIOfufOT+SM8bw
p5945
aVVgMR6LcACREYZKP53OvXYQ
p5946
aVWTso+DgtAcXA96TX0p8RjQ
p5947
aVXxtcMrMBca6gJoRlzTEeRA
p5948
aV9PJAUvGrpHfWkRizmG3nbQ
p5949
aVyOqfUICNvtRN3Y/J5kCE7w
p5950
aVVrfvFYBqTjlj6uPfqwDQvw
p5951
aVpwDVQ1QvWrUq1ENAKwtJgw
p5952
aVCqmDjo3mgVFDlT9s8pC26A
p5953
aVvLhTlpOzXkBDLZTDaxI3GA
p5954
aVDECsZ4ReR0EPq0dOqdPMTQ
p5955
a.